
arrays.o:     file format elf64-x86-64


Disassembly of section .text:

0000000000000000 <_Z8heapsortPii>:
#include "arrays.h"

void heapsort(int A[], int length) {
   0:	f3 0f 1e fa          	endbr64 
   4:	55                   	push   %rbp
   5:	48 89 e5             	mov    %rsp,%rbp
   8:	48 83 ec 20          	sub    $0x20,%rsp
   c:	48 89 7d e8          	mov    %rdi,-0x18(%rbp)
  10:	89 75 e4             	mov    %esi,-0x1c(%rbp)
    build_max_heap(A, length);
  13:	8b 55 e4             	mov    -0x1c(%rbp),%edx
  16:	48 8b 45 e8          	mov    -0x18(%rbp),%rax
  1a:	89 d6                	mov    %edx,%esi
  1c:	48 89 c7             	mov    %rax,%rdi
  1f:	e8 00 00 00 00       	call   24 <_Z8heapsortPii+0x24>
    int heap_size = length;
  24:	8b 45 e4             	mov    -0x1c(%rbp),%eax
  27:	89 45 f8             	mov    %eax,-0x8(%rbp)
    for (int i = length-1; i > 1; i--) {
  2a:	8b 45 e4             	mov    -0x1c(%rbp),%eax
  2d:	83 e8 01             	sub    $0x1,%eax
  30:	89 45 fc             	mov    %eax,-0x4(%rbp)
  33:	eb 41                	jmp    76 <_Z8heapsortPii+0x76>
        swap_elements(A[0], A[i]);
  35:	8b 45 fc             	mov    -0x4(%rbp),%eax
  38:	48 98                	cltq   
  3a:	48 8d 14 85 00 00 00 	lea    0x0(,%rax,4),%rdx
  41:	00 
  42:	48 8b 45 e8          	mov    -0x18(%rbp),%rax
  46:	48 01 c2             	add    %rax,%rdx
  49:	48 8b 45 e8          	mov    -0x18(%rbp),%rax
  4d:	48 89 d6             	mov    %rdx,%rsi
  50:	48 89 c7             	mov    %rax,%rdi
  53:	e8 00 00 00 00       	call   58 <_Z8heapsortPii+0x58>
        heap_size = heap_size - 1;
  58:	83 6d f8 01          	subl   $0x1,-0x8(%rbp)
        max_heapify(A, heap_size, 0);
  5c:	8b 4d f8             	mov    -0x8(%rbp),%ecx
  5f:	48 8b 45 e8          	mov    -0x18(%rbp),%rax
  63:	ba 00 00 00 00       	mov    $0x0,%edx
  68:	89 ce                	mov    %ecx,%esi
  6a:	48 89 c7             	mov    %rax,%rdi
  6d:	e8 00 00 00 00       	call   72 <_Z8heapsortPii+0x72>
    for (int i = length-1; i > 1; i--) {
  72:	83 6d fc 01          	subl   $0x1,-0x4(%rbp)
  76:	83 7d fc 01          	cmpl   $0x1,-0x4(%rbp)
  7a:	7f b9                	jg     35 <_Z8heapsortPii+0x35>
    }
}
  7c:	90                   	nop
  7d:	90                   	nop
  7e:	c9                   	leave  
  7f:	c3                   	ret    

0000000000000080 <_Z14build_max_heapPii>:

void build_max_heap(int A[], int length) {
  80:	f3 0f 1e fa          	endbr64 
  84:	55                   	push   %rbp
  85:	48 89 e5             	mov    %rsp,%rbp
  88:	48 83 ec 20          	sub    $0x20,%rsp
  8c:	48 89 7d e8          	mov    %rdi,-0x18(%rbp)
  90:	89 75 e4             	mov    %esi,-0x1c(%rbp)
    int heap_size = length;
  93:	8b 45 e4             	mov    -0x1c(%rbp),%eax
  96:	89 45 fc             	mov    %eax,-0x4(%rbp)
    for (int i = length/2-1; i >= 0; i--) {
  99:	8b 45 e4             	mov    -0x1c(%rbp),%eax
  9c:	89 c2                	mov    %eax,%edx
  9e:	c1 ea 1f             	shr    $0x1f,%edx
  a1:	01 d0                	add    %edx,%eax
  a3:	d1 f8                	sar    %eax
  a5:	83 e8 01             	sub    $0x1,%eax
  a8:	89 45 f8             	mov    %eax,-0x8(%rbp)
  ab:	eb 18                	jmp    c5 <_Z14build_max_heapPii+0x45>
        max_heapify(A, heap_size, i);
  ad:	8b 55 f8             	mov    -0x8(%rbp),%edx
  b0:	8b 4d fc             	mov    -0x4(%rbp),%ecx
  b3:	48 8b 45 e8          	mov    -0x18(%rbp),%rax
  b7:	89 ce                	mov    %ecx,%esi
  b9:	48 89 c7             	mov    %rax,%rdi
  bc:	e8 00 00 00 00       	call   c1 <_Z14build_max_heapPii+0x41>
    for (int i = length/2-1; i >= 0; i--) {
  c1:	83 6d f8 01          	subl   $0x1,-0x8(%rbp)
  c5:	83 7d f8 00          	cmpl   $0x0,-0x8(%rbp)
  c9:	79 e2                	jns    ad <_Z14build_max_heapPii+0x2d>
    }
}
  cb:	90                   	nop
  cc:	90                   	nop
  cd:	c9                   	leave  
  ce:	c3                   	ret    

00000000000000cf <_Z11max_heapifyPiii>:

void max_heapify(int A[], int heap_size, int i) {
  cf:	f3 0f 1e fa          	endbr64 
  d3:	55                   	push   %rbp
  d4:	48 89 e5             	mov    %rsp,%rbp
  d7:	48 83 ec 20          	sub    $0x20,%rsp
  db:	48 89 7d e8          	mov    %rdi,-0x18(%rbp)
  df:	89 75 e4             	mov    %esi,-0x1c(%rbp)
  e2:	89 55 e0             	mov    %edx,-0x20(%rbp)
    int l = left(i);
  e5:	8b 45 e0             	mov    -0x20(%rbp),%eax
  e8:	89 c7                	mov    %eax,%edi
  ea:	e8 00 00 00 00       	call   ef <_Z11max_heapifyPiii+0x20>
  ef:	89 45 f8             	mov    %eax,-0x8(%rbp)
    int r = right(i);
  f2:	8b 45 e0             	mov    -0x20(%rbp),%eax
  f5:	89 c7                	mov    %eax,%edi
  f7:	e8 00 00 00 00       	call   fc <_Z11max_heapifyPiii+0x2d>
  fc:	89 45 fc             	mov    %eax,-0x4(%rbp)
    int largest;
    if(l <= (heap_size - 1) && A[l] > A[i])
  ff:	8b 45 e4             	mov    -0x1c(%rbp),%eax
 102:	3b 45 f8             	cmp    -0x8(%rbp),%eax
 105:	7e 38                	jle    13f <_Z11max_heapifyPiii+0x70>
 107:	8b 45 f8             	mov    -0x8(%rbp),%eax
 10a:	48 98                	cltq   
 10c:	48 8d 14 85 00 00 00 	lea    0x0(,%rax,4),%rdx
 113:	00 
 114:	48 8b 45 e8          	mov    -0x18(%rbp),%rax
 118:	48 01 d0             	add    %rdx,%rax
 11b:	8b 10                	mov    (%rax),%edx
 11d:	8b 45 e0             	mov    -0x20(%rbp),%eax
 120:	48 98                	cltq   
 122:	48 8d 0c 85 00 00 00 	lea    0x0(,%rax,4),%rcx
 129:	00 
 12a:	48 8b 45 e8          	mov    -0x18(%rbp),%rax
 12e:	48 01 c8             	add    %rcx,%rax
 131:	8b 00                	mov    (%rax),%eax
 133:	39 c2                	cmp    %eax,%edx
 135:	7e 08                	jle    13f <_Z11max_heapifyPiii+0x70>
        largest = l;
 137:	8b 45 f8             	mov    -0x8(%rbp),%eax
 13a:	89 45 f4             	mov    %eax,-0xc(%rbp)
 13d:	eb 06                	jmp    145 <_Z11max_heapifyPiii+0x76>
    else
        largest = i;
 13f:	8b 45 e0             	mov    -0x20(%rbp),%eax
 142:	89 45 f4             	mov    %eax,-0xc(%rbp)
    if (r <= (heap_size - 1) && A[r] > A[largest])
 145:	8b 45 e4             	mov    -0x1c(%rbp),%eax
 148:	3b 45 fc             	cmp    -0x4(%rbp),%eax
 14b:	7e 36                	jle    183 <_Z11max_heapifyPiii+0xb4>
 14d:	8b 45 fc             	mov    -0x4(%rbp),%eax
 150:	48 98                	cltq   
 152:	48 8d 14 85 00 00 00 	lea    0x0(,%rax,4),%rdx
 159:	00 
 15a:	48 8b 45 e8          	mov    -0x18(%rbp),%rax
 15e:	48 01 d0             	add    %rdx,%rax
 161:	8b 10                	mov    (%rax),%edx
 163:	8b 45 f4             	mov    -0xc(%rbp),%eax
 166:	48 98                	cltq   
 168:	48 8d 0c 85 00 00 00 	lea    0x0(,%rax,4),%rcx
 16f:	00 
 170:	48 8b 45 e8          	mov    -0x18(%rbp),%rax
 174:	48 01 c8             	add    %rcx,%rax
 177:	8b 00                	mov    (%rax),%eax
 179:	39 c2                	cmp    %eax,%edx
 17b:	7e 06                	jle    183 <_Z11max_heapifyPiii+0xb4>
        largest = r;
 17d:	8b 45 fc             	mov    -0x4(%rbp),%eax
 180:	89 45 f4             	mov    %eax,-0xc(%rbp)
    if (largest != i) {
 183:	8b 45 f4             	mov    -0xc(%rbp),%eax
 186:	3b 45 e0             	cmp    -0x20(%rbp),%eax
 189:	74 47                	je     1d2 <_Z11max_heapifyPiii+0x103>
        swap_elements(A[i], A[largest]);
 18b:	8b 45 f4             	mov    -0xc(%rbp),%eax
 18e:	48 98                	cltq   
 190:	48 8d 14 85 00 00 00 	lea    0x0(,%rax,4),%rdx
 197:	00 
 198:	48 8b 45 e8          	mov    -0x18(%rbp),%rax
 19c:	48 01 c2             	add    %rax,%rdx
 19f:	8b 45 e0             	mov    -0x20(%rbp),%eax
 1a2:	48 98                	cltq   
 1a4:	48 8d 0c 85 00 00 00 	lea    0x0(,%rax,4),%rcx
 1ab:	00 
 1ac:	48 8b 45 e8          	mov    -0x18(%rbp),%rax
 1b0:	48 01 c8             	add    %rcx,%rax
 1b3:	48 89 d6             	mov    %rdx,%rsi
 1b6:	48 89 c7             	mov    %rax,%rdi
 1b9:	e8 00 00 00 00       	call   1be <_Z11max_heapifyPiii+0xef>
        max_heapify(A, heap_size, largest);
 1be:	8b 55 f4             	mov    -0xc(%rbp),%edx
 1c1:	8b 4d e4             	mov    -0x1c(%rbp),%ecx
 1c4:	48 8b 45 e8          	mov    -0x18(%rbp),%rax
 1c8:	89 ce                	mov    %ecx,%esi
 1ca:	48 89 c7             	mov    %rax,%rdi
 1cd:	e8 00 00 00 00       	call   1d2 <_Z11max_heapifyPiii+0x103>
    }
}
 1d2:	90                   	nop
 1d3:	c9                   	leave  
 1d4:	c3                   	ret    

00000000000001d5 <_Z6parenti>:

int parent(int i){
 1d5:	f3 0f 1e fa          	endbr64 
 1d9:	55                   	push   %rbp
 1da:	48 89 e5             	mov    %rsp,%rbp
 1dd:	89 7d fc             	mov    %edi,-0x4(%rbp)
    if(!i) return 0;
 1e0:	83 7d fc 00          	cmpl   $0x0,-0x4(%rbp)
 1e4:	75 07                	jne    1ed <_Z6parenti+0x18>
 1e6:	b8 00 00 00 00       	mov    $0x0,%eax
 1eb:	eb 0f                	jmp    1fc <_Z6parenti+0x27>
    return (i-1)/2;
 1ed:	8b 45 fc             	mov    -0x4(%rbp),%eax
 1f0:	83 e8 01             	sub    $0x1,%eax
 1f3:	89 c2                	mov    %eax,%edx
 1f5:	c1 ea 1f             	shr    $0x1f,%edx
 1f8:	01 d0                	add    %edx,%eax
 1fa:	d1 f8                	sar    %eax
}
 1fc:	5d                   	pop    %rbp
 1fd:	c3                   	ret    

00000000000001fe <_Z4lefti>:

int left(int i) {
 1fe:	f3 0f 1e fa          	endbr64 
 202:	55                   	push   %rbp
 203:	48 89 e5             	mov    %rsp,%rbp
 206:	89 7d fc             	mov    %edi,-0x4(%rbp)
    return 2*i+1;
 209:	8b 45 fc             	mov    -0x4(%rbp),%eax
 20c:	01 c0                	add    %eax,%eax
 20e:	83 c0 01             	add    $0x1,%eax
}
 211:	5d                   	pop    %rbp
 212:	c3                   	ret    

0000000000000213 <_Z5righti>:

int right(int i) {
 213:	f3 0f 1e fa          	endbr64 
 217:	55                   	push   %rbp
 218:	48 89 e5             	mov    %rsp,%rbp
 21b:	89 7d fc             	mov    %edi,-0x4(%rbp)
        return 2*(i + 1);
 21e:	8b 45 fc             	mov    -0x4(%rbp),%eax
 221:	83 c0 01             	add    $0x1,%eax
 224:	01 c0                	add    %eax,%eax
}
 226:	5d                   	pop    %rbp
 227:	c3                   	ret    

0000000000000228 <_Z9init_randPiii>:


void init_rand(int A[], const int length, int maxValue) {
 228:	f3 0f 1e fa          	endbr64 
 22c:	55                   	push   %rbp
 22d:	48 89 e5             	mov    %rsp,%rbp
 230:	53                   	push   %rbx
 231:	48 81 ec 00 10 00 00 	sub    $0x1000,%rsp
 238:	48 83 0c 24 00       	orq    $0x0,(%rsp)
 23d:	48 81 ec 00 10 00 00 	sub    $0x1000,%rsp
 244:	48 83 0c 24 00       	orq    $0x0,(%rsp)
 249:	48 81 ec 48 07 00 00 	sub    $0x748,%rsp
 250:	48 89 bd b8 d8 ff ff 	mov    %rdi,-0x2748(%rbp)
 257:	89 b5 b4 d8 ff ff    	mov    %esi,-0x274c(%rbp)
 25d:	89 95 b0 d8 ff ff    	mov    %edx,-0x2750(%rbp)
 263:	64 48 8b 04 25 28 00 	mov    %fs:0x28,%rax
 26a:	00 00 
 26c:	48 89 45 e8          	mov    %rax,-0x18(%rbp)
 270:	31 c0                	xor    %eax,%eax
    std::random_device rd;     // Only used once to initialise (seed) engine
 272:	48 8d 85 d0 d8 ff ff 	lea    -0x2730(%rbp),%rax
 279:	48 89 c7             	mov    %rax,%rdi
 27c:	e8 00 00 00 00       	call   281 <_Z9init_randPiii+0x59>
    std::mt19937 rng(rd());    // Random-number engine used (Mersenne-Twister in this case)
 281:	48 8d 85 d0 d8 ff ff 	lea    -0x2730(%rbp),%rax
 288:	48 89 c7             	mov    %rax,%rdi
 28b:	e8 00 00 00 00       	call   290 <_Z9init_randPiii+0x68>
 290:	89 c2                	mov    %eax,%edx
 292:	48 8d 85 60 ec ff ff 	lea    -0x13a0(%rbp),%rax
 299:	48 89 d6             	mov    %rdx,%rsi
 29c:	48 89 c7             	mov    %rax,%rdi
 29f:	e8 00 00 00 00       	call   2a4 <_Z9init_randPiii+0x7c>
    std::uniform_int_distribution<int> uni(1, maxValue); // Guaranteed unbiased
 2a4:	8b 95 b0 d8 ff ff    	mov    -0x2750(%rbp),%edx
 2aa:	48 8d 85 c8 d8 ff ff 	lea    -0x2738(%rbp),%rax
 2b1:	be 01 00 00 00       	mov    $0x1,%esi
 2b6:	48 89 c7             	mov    %rax,%rdi
 2b9:	e8 00 00 00 00       	call   2be <_Z9init_randPiii+0x96>

    for(int i = 0; i < length; i++) {
 2be:	c7 85 c4 d8 ff ff 00 	movl   $0x0,-0x273c(%rbp)
 2c5:	00 00 00 
 2c8:	eb 3d                	jmp    307 <_Z9init_randPiii+0xdf>
        A[i] = uni(rng);
 2ca:	8b 85 c4 d8 ff ff    	mov    -0x273c(%rbp),%eax
 2d0:	48 98                	cltq   
 2d2:	48 8d 14 85 00 00 00 	lea    0x0(,%rax,4),%rdx
 2d9:	00 
 2da:	48 8b 85 b8 d8 ff ff 	mov    -0x2748(%rbp),%rax
 2e1:	48 8d 1c 02          	lea    (%rdx,%rax,1),%rbx
 2e5:	48 8d 95 60 ec ff ff 	lea    -0x13a0(%rbp),%rdx
 2ec:	48 8d 85 c8 d8 ff ff 	lea    -0x2738(%rbp),%rax
 2f3:	48 89 d6             	mov    %rdx,%rsi
 2f6:	48 89 c7             	mov    %rax,%rdi
 2f9:	e8 00 00 00 00       	call   2fe <_Z9init_randPiii+0xd6>
 2fe:	89 03                	mov    %eax,(%rbx)
    for(int i = 0; i < length; i++) {
 300:	83 85 c4 d8 ff ff 01 	addl   $0x1,-0x273c(%rbp)
 307:	8b 85 c4 d8 ff ff    	mov    -0x273c(%rbp),%eax
 30d:	3b 85 b4 d8 ff ff    	cmp    -0x274c(%rbp),%eax
 313:	7c b5                	jl     2ca <_Z9init_randPiii+0xa2>
    }
}
 315:	48 8d 85 d0 d8 ff ff 	lea    -0x2730(%rbp),%rax
 31c:	48 89 c7             	mov    %rax,%rdi
 31f:	e8 00 00 00 00       	call   324 <_Z9init_randPiii+0xfc>
 324:	48 8b 45 e8          	mov    -0x18(%rbp),%rax
 328:	64 48 2b 04 25 28 00 	sub    %fs:0x28,%rax
 32f:	00 00 
 331:	74 28                	je     35b <_Z9init_randPiii+0x133>
 333:	eb 21                	jmp    356 <_Z9init_randPiii+0x12e>
 335:	f3 0f 1e fa          	endbr64 
 339:	48 89 c3             	mov    %rax,%rbx
 33c:	48 8d 85 d0 d8 ff ff 	lea    -0x2730(%rbp),%rax
 343:	48 89 c7             	mov    %rax,%rdi
 346:	e8 00 00 00 00       	call   34b <_Z9init_randPiii+0x123>
 34b:	48 89 d8             	mov    %rbx,%rax
 34e:	48 89 c7             	mov    %rax,%rdi
 351:	e8 00 00 00 00       	call   356 <_Z9init_randPiii+0x12e>
 356:	e8 00 00 00 00       	call   35b <_Z9init_randPiii+0x133>
 35b:	48 8b 5d f8          	mov    -0x8(%rbp),%rbx
 35f:	c9                   	leave  
 360:	c3                   	ret    

0000000000000361 <_Z15init_descendingPii>:

//Fills an array by descending integer numbers.
void init_descending(int A[], const int length) {
 361:	f3 0f 1e fa          	endbr64 
 365:	55                   	push   %rbp
 366:	48 89 e5             	mov    %rsp,%rbp
 369:	48 89 7d e8          	mov    %rdi,-0x18(%rbp)
 36d:	89 75 e4             	mov    %esi,-0x1c(%rbp)
    for(int i = 0; i < length; i++) {
 370:	c7 45 fc 00 00 00 00 	movl   $0x0,-0x4(%rbp)
 377:	eb 20                	jmp    399 <_Z15init_descendingPii+0x38>
        A[i] = length - i;
 379:	8b 45 fc             	mov    -0x4(%rbp),%eax
 37c:	48 98                	cltq   
 37e:	48 8d 14 85 00 00 00 	lea    0x0(,%rax,4),%rdx
 385:	00 
 386:	48 8b 45 e8          	mov    -0x18(%rbp),%rax
 38a:	48 01 c2             	add    %rax,%rdx
 38d:	8b 45 e4             	mov    -0x1c(%rbp),%eax
 390:	2b 45 fc             	sub    -0x4(%rbp),%eax
 393:	89 02                	mov    %eax,(%rdx)
    for(int i = 0; i < length; i++) {
 395:	83 45 fc 01          	addl   $0x1,-0x4(%rbp)
 399:	8b 45 fc             	mov    -0x4(%rbp),%eax
 39c:	3b 45 e4             	cmp    -0x1c(%rbp),%eax
 39f:	7c d8                	jl     379 <_Z15init_descendingPii+0x18>
    }
}
 3a1:	90                   	nop
 3a2:	90                   	nop
 3a3:	5d                   	pop    %rbp
 3a4:	c3                   	ret    

00000000000003a5 <_Z13swap_elementsRiS_>:

void swap_elements(int& a, int& b) {
 3a5:	f3 0f 1e fa          	endbr64 
 3a9:	55                   	push   %rbp
 3aa:	48 89 e5             	mov    %rsp,%rbp
 3ad:	48 89 7d e8          	mov    %rdi,-0x18(%rbp)
 3b1:	48 89 75 e0          	mov    %rsi,-0x20(%rbp)
    int x = a;
 3b5:	48 8b 45 e8          	mov    -0x18(%rbp),%rax
 3b9:	8b 00                	mov    (%rax),%eax
 3bb:	89 45 fc             	mov    %eax,-0x4(%rbp)
    a = b;
 3be:	48 8b 45 e0          	mov    -0x20(%rbp),%rax
 3c2:	8b 10                	mov    (%rax),%edx
 3c4:	48 8b 45 e8          	mov    -0x18(%rbp),%rax
 3c8:	89 10                	mov    %edx,(%rax)
    b = x;
 3ca:	48 8b 45 e0          	mov    -0x20(%rbp),%rax
 3ce:	8b 55 fc             	mov    -0x4(%rbp),%edx
 3d1:	89 10                	mov    %edx,(%rax)
}
 3d3:	90                   	nop
 3d4:	5d                   	pop    %rbp
 3d5:	c3                   	ret    

00000000000003d6 <_Z8is_equalPiS_i>:

bool is_equal(int A[], int B[], int length) {
 3d6:	f3 0f 1e fa          	endbr64 
 3da:	55                   	push   %rbp
 3db:	48 89 e5             	mov    %rsp,%rbp
 3de:	48 89 7d e8          	mov    %rdi,-0x18(%rbp)
 3e2:	48 89 75 e0          	mov    %rsi,-0x20(%rbp)
 3e6:	89 55 dc             	mov    %edx,-0x24(%rbp)
    for (int i = 0; i < length; i++) {
 3e9:	c7 45 fc 00 00 00 00 	movl   $0x0,-0x4(%rbp)
 3f0:	eb 3b                	jmp    42d <_Z8is_equalPiS_i+0x57>
        if (A[i] != B[i]) return false;
 3f2:	8b 45 fc             	mov    -0x4(%rbp),%eax
 3f5:	48 98                	cltq   
 3f7:	48 8d 14 85 00 00 00 	lea    0x0(,%rax,4),%rdx
 3fe:	00 
 3ff:	48 8b 45 e8          	mov    -0x18(%rbp),%rax
 403:	48 01 d0             	add    %rdx,%rax
 406:	8b 10                	mov    (%rax),%edx
 408:	8b 45 fc             	mov    -0x4(%rbp),%eax
 40b:	48 98                	cltq   
 40d:	48 8d 0c 85 00 00 00 	lea    0x0(,%rax,4),%rcx
 414:	00 
 415:	48 8b 45 e0          	mov    -0x20(%rbp),%rax
 419:	48 01 c8             	add    %rcx,%rax
 41c:	8b 00                	mov    (%rax),%eax
 41e:	39 c2                	cmp    %eax,%edx
 420:	74 07                	je     429 <_Z8is_equalPiS_i+0x53>
 422:	b8 00 00 00 00       	mov    $0x0,%eax
 427:	eb 11                	jmp    43a <_Z8is_equalPiS_i+0x64>
    for (int i = 0; i < length; i++) {
 429:	83 45 fc 01          	addl   $0x1,-0x4(%rbp)
 42d:	8b 45 fc             	mov    -0x4(%rbp),%eax
 430:	3b 45 dc             	cmp    -0x24(%rbp),%eax
 433:	7c bd                	jl     3f2 <_Z8is_equalPiS_i+0x1c>
    }
    return true;
 435:	b8 01 00 00 00       	mov    $0x1,%eax
}
 43a:	5d                   	pop    %rbp
 43b:	c3                   	ret    

000000000000043c <_Z14insertion_sortRSt6vectorIiSaIiEE>:

void insertion_sort(std::vector<int>& A) {
 43c:	f3 0f 1e fa          	endbr64 
 440:	55                   	push   %rbp
 441:	48 89 e5             	mov    %rsp,%rbp
 444:	53                   	push   %rbx
 445:	48 83 ec 28          	sub    $0x28,%rsp
 449:	48 89 7d d8          	mov    %rdi,-0x28(%rbp)
    if (A.empty())
 44d:	48 8b 45 d8          	mov    -0x28(%rbp),%rax
 451:	48 89 c7             	mov    %rax,%rdi
 454:	e8 00 00 00 00       	call   459 <_Z14insertion_sortRSt6vectorIiSaIiEE+0x1d>
 459:	84 c0                	test   %al,%al
 45b:	0f 85 db 00 00 00    	jne    53c <_Z14insertion_sortRSt6vectorIiSaIiEE+0x100>
        return;
    for (int j = 1; j < A.size(); ++j) {
 461:	c7 45 e4 01 00 00 00 	movl   $0x1,-0x1c(%rbp)
 468:	e9 ad 00 00 00       	jmp    51a <_Z14insertion_sortRSt6vectorIiSaIiEE+0xde>
        int tmp = A[j];
 46d:	8b 45 e4             	mov    -0x1c(%rbp),%eax
 470:	48 63 d0             	movslq %eax,%rdx
 473:	48 8b 45 d8          	mov    -0x28(%rbp),%rax
 477:	48 89 d6             	mov    %rdx,%rsi
 47a:	48 89 c7             	mov    %rax,%rdi
 47d:	e8 00 00 00 00       	call   482 <_Z14insertion_sortRSt6vectorIiSaIiEE+0x46>
 482:	8b 00                	mov    (%rax),%eax
 484:	89 45 ec             	mov    %eax,-0x14(%rbp)
        int i = j - 1;
 487:	8b 45 e4             	mov    -0x1c(%rbp),%eax
 48a:	83 e8 01             	sub    $0x1,%eax
 48d:	89 45 e8             	mov    %eax,-0x18(%rbp)
        while (i >= 0 && A[i] > tmp) {
 490:	eb 35                	jmp    4c7 <_Z14insertion_sortRSt6vectorIiSaIiEE+0x8b>
            A[i + 1] = A[i];
 492:	8b 45 e8             	mov    -0x18(%rbp),%eax
 495:	48 63 d0             	movslq %eax,%rdx
 498:	48 8b 45 d8          	mov    -0x28(%rbp),%rax
 49c:	48 89 d6             	mov    %rdx,%rsi
 49f:	48 89 c7             	mov    %rax,%rdi
 4a2:	e8 00 00 00 00       	call   4a7 <_Z14insertion_sortRSt6vectorIiSaIiEE+0x6b>
 4a7:	8b 18                	mov    (%rax),%ebx
 4a9:	8b 45 e8             	mov    -0x18(%rbp),%eax
 4ac:	83 c0 01             	add    $0x1,%eax
 4af:	48 63 d0             	movslq %eax,%rdx
 4b2:	48 8b 45 d8          	mov    -0x28(%rbp),%rax
 4b6:	48 89 d6             	mov    %rdx,%rsi
 4b9:	48 89 c7             	mov    %rax,%rdi
 4bc:	e8 00 00 00 00       	call   4c1 <_Z14insertion_sortRSt6vectorIiSaIiEE+0x85>
 4c1:	89 18                	mov    %ebx,(%rax)
            --i;
 4c3:	83 6d e8 01          	subl   $0x1,-0x18(%rbp)
        while (i >= 0 && A[i] > tmp) {
 4c7:	83 7d e8 00          	cmpl   $0x0,-0x18(%rbp)
 4cb:	78 23                	js     4f0 <_Z14insertion_sortRSt6vectorIiSaIiEE+0xb4>
 4cd:	8b 45 e8             	mov    -0x18(%rbp),%eax
 4d0:	48 63 d0             	movslq %eax,%rdx
 4d3:	48 8b 45 d8          	mov    -0x28(%rbp),%rax
 4d7:	48 89 d6             	mov    %rdx,%rsi
 4da:	48 89 c7             	mov    %rax,%rdi
 4dd:	e8 00 00 00 00       	call   4e2 <_Z14insertion_sortRSt6vectorIiSaIiEE+0xa6>
 4e2:	8b 00                	mov    (%rax),%eax
 4e4:	39 45 ec             	cmp    %eax,-0x14(%rbp)
 4e7:	7d 07                	jge    4f0 <_Z14insertion_sortRSt6vectorIiSaIiEE+0xb4>
 4e9:	b8 01 00 00 00       	mov    $0x1,%eax
 4ee:	eb 05                	jmp    4f5 <_Z14insertion_sortRSt6vectorIiSaIiEE+0xb9>
 4f0:	b8 00 00 00 00       	mov    $0x0,%eax
 4f5:	84 c0                	test   %al,%al
 4f7:	75 99                	jne    492 <_Z14insertion_sortRSt6vectorIiSaIiEE+0x56>
        }
        A[i + 1] = tmp;
 4f9:	8b 5d ec             	mov    -0x14(%rbp),%ebx
 4fc:	8b 45 e8             	mov    -0x18(%rbp),%eax
 4ff:	83 c0 01             	add    $0x1,%eax
 502:	48 63 d0             	movslq %eax,%rdx
 505:	48 8b 45 d8          	mov    -0x28(%rbp),%rax
 509:	48 89 d6             	mov    %rdx,%rsi
 50c:	48 89 c7             	mov    %rax,%rdi
 50f:	e8 00 00 00 00       	call   514 <_Z14insertion_sortRSt6vectorIiSaIiEE+0xd8>
 514:	89 18                	mov    %ebx,(%rax)
    for (int j = 1; j < A.size(); ++j) {
 516:	83 45 e4 01          	addl   $0x1,-0x1c(%rbp)
 51a:	8b 45 e4             	mov    -0x1c(%rbp),%eax
 51d:	48 63 d8             	movslq %eax,%rbx
 520:	48 8b 45 d8          	mov    -0x28(%rbp),%rax
 524:	48 89 c7             	mov    %rax,%rdi
 527:	e8 00 00 00 00       	call   52c <_Z14insertion_sortRSt6vectorIiSaIiEE+0xf0>
 52c:	48 39 c3             	cmp    %rax,%rbx
 52f:	0f 92 c0             	setb   %al
 532:	84 c0                	test   %al,%al
 534:	0f 85 33 ff ff ff    	jne    46d <_Z14insertion_sortRSt6vectorIiSaIiEE+0x31>
 53a:	eb 01                	jmp    53d <_Z14insertion_sortRSt6vectorIiSaIiEE+0x101>
        return;
 53c:	90                   	nop
    }
}
 53d:	48 8b 5d f8          	mov    -0x8(%rbp),%rbx
 541:	c9                   	leave  
 542:	c3                   	ret    

0000000000000543 <_Z13getRandVectorii18RandGenerationMode>:
std::vector<int> getRandVector(int maxValue, int maxSize, RandGenerationMode mode) {
 543:	f3 0f 1e fa          	endbr64 
 547:	55                   	push   %rbp
 548:	48 89 e5             	mov    %rsp,%rbp
 54b:	53                   	push   %rbx
 54c:	48 83 ec 48          	sub    $0x48,%rsp
 550:	48 89 7d c8          	mov    %rdi,-0x38(%rbp)
 554:	89 75 c4             	mov    %esi,-0x3c(%rbp)
 557:	89 55 c0             	mov    %edx,-0x40(%rbp)
 55a:	89 4d bc             	mov    %ecx,-0x44(%rbp)
 55d:	64 48 8b 04 25 28 00 	mov    %fs:0x28,%rax
 564:	00 00 
 566:	48 89 45 e8          	mov    %rax,-0x18(%rbp)
 56a:	31 c0                	xor    %eax,%eax
    std::srand(std::time(NULL));
 56c:	bf 00 00 00 00       	mov    $0x0,%edi
 571:	e8 00 00 00 00       	call   576 <_Z13getRandVectorii18RandGenerationMode+0x33>
 576:	89 c7                	mov    %eax,%edi
 578:	e8 00 00 00 00       	call   57d <_Z13getRandVectorii18RandGenerationMode+0x3a>
    int size;
    if (mode == RandGenerationMode::fixedSize) {
 57d:	83 7d bc 00          	cmpl   $0x0,-0x44(%rbp)
 581:	75 08                	jne    58b <_Z13getRandVectorii18RandGenerationMode+0x48>
        size = maxSize;
 583:	8b 45 c0             	mov    -0x40(%rbp),%eax
 586:	89 45 e0             	mov    %eax,-0x20(%rbp)
 589:	eb 11                	jmp    59c <_Z13getRandVectorii18RandGenerationMode+0x59>
    }
    else {
        size  = std::rand() % (maxSize + 1);
 58b:	e8 00 00 00 00       	call   590 <_Z13getRandVectorii18RandGenerationMode+0x4d>
 590:	8b 55 c0             	mov    -0x40(%rbp),%edx
 593:	8d 4a 01             	lea    0x1(%rdx),%ecx
 596:	99                   	cltd   
 597:	f7 f9                	idiv   %ecx
 599:	89 55 e0             	mov    %edx,-0x20(%rbp)
    }
    std::vector<int> res(size);
 59c:	48 8d 45 df          	lea    -0x21(%rbp),%rax
 5a0:	48 89 c7             	mov    %rax,%rdi
 5a3:	e8 00 00 00 00       	call   5a8 <_Z13getRandVectorii18RandGenerationMode+0x65>
 5a8:	8b 45 e0             	mov    -0x20(%rbp),%eax
 5ab:	48 63 c8             	movslq %eax,%rcx
 5ae:	48 8d 55 df          	lea    -0x21(%rbp),%rdx
 5b2:	48 8b 45 c8          	mov    -0x38(%rbp),%rax
 5b6:	48 89 ce             	mov    %rcx,%rsi
 5b9:	48 89 c7             	mov    %rax,%rdi
 5bc:	e8 00 00 00 00       	call   5c1 <_Z13getRandVectorii18RandGenerationMode+0x7e>
 5c1:	48 8d 45 df          	lea    -0x21(%rbp),%rax
 5c5:	48 89 c7             	mov    %rax,%rdi
 5c8:	e8 00 00 00 00       	call   5cd <_Z13getRandVectorii18RandGenerationMode+0x8a>
    for (int i = 0; i < size; ++i) {
 5cd:	c7 45 e4 00 00 00 00 	movl   $0x0,-0x1c(%rbp)
 5d4:	eb 2b                	jmp    601 <_Z13getRandVectorii18RandGenerationMode+0xbe>
        res[i] = std::rand() % (maxValue + 1);
 5d6:	e8 00 00 00 00       	call   5db <_Z13getRandVectorii18RandGenerationMode+0x98>
 5db:	8b 55 c4             	mov    -0x3c(%rbp),%edx
 5de:	8d 4a 01             	lea    0x1(%rdx),%ecx
 5e1:	99                   	cltd   
 5e2:	f7 f9                	idiv   %ecx
 5e4:	89 d3                	mov    %edx,%ebx
 5e6:	8b 45 e4             	mov    -0x1c(%rbp),%eax
 5e9:	48 63 d0             	movslq %eax,%rdx
 5ec:	48 8b 45 c8          	mov    -0x38(%rbp),%rax
 5f0:	48 89 d6             	mov    %rdx,%rsi
 5f3:	48 89 c7             	mov    %rax,%rdi
 5f6:	e8 00 00 00 00       	call   5fb <_Z13getRandVectorii18RandGenerationMode+0xb8>
 5fb:	89 18                	mov    %ebx,(%rax)
    for (int i = 0; i < size; ++i) {
 5fd:	83 45 e4 01          	addl   $0x1,-0x1c(%rbp)
 601:	8b 45 e4             	mov    -0x1c(%rbp),%eax
 604:	3b 45 e0             	cmp    -0x20(%rbp),%eax
 607:	7c cd                	jl     5d6 <_Z13getRandVectorii18RandGenerationMode+0x93>
    }
    return res;
 609:	eb 1e                	jmp    629 <_Z13getRandVectorii18RandGenerationMode+0xe6>
 60b:	f3 0f 1e fa          	endbr64 
 60f:	48 89 c3             	mov    %rax,%rbx
 612:	48 8d 45 df          	lea    -0x21(%rbp),%rax
 616:	48 89 c7             	mov    %rax,%rdi
 619:	e8 00 00 00 00       	call   61e <_Z13getRandVectorii18RandGenerationMode+0xdb>
 61e:	48 89 d8             	mov    %rbx,%rax
 621:	48 89 c7             	mov    %rax,%rdi
 624:	e8 00 00 00 00       	call   629 <_Z13getRandVectorii18RandGenerationMode+0xe6>
}
 629:	48 8b 45 e8          	mov    -0x18(%rbp),%rax
 62d:	64 48 2b 04 25 28 00 	sub    %fs:0x28,%rax
 634:	00 00 
 636:	74 05                	je     63d <_Z13getRandVectorii18RandGenerationMode+0xfa>
 638:	e8 00 00 00 00       	call   63d <_Z13getRandVectorii18RandGenerationMode+0xfa>
 63d:	48 8b 45 c8          	mov    -0x38(%rbp),%rax
 641:	48 8b 5d f8          	mov    -0x8(%rbp),%rbx
 645:	c9                   	leave  
 646:	c3                   	ret    

0000000000000647 <_Z41__static_initialization_and_destruction_0ii>:
 647:	f3 0f 1e fa          	endbr64 
 64b:	55                   	push   %rbp
 64c:	48 89 e5             	mov    %rsp,%rbp
 64f:	48 83 ec 10          	sub    $0x10,%rsp
 653:	89 7d fc             	mov    %edi,-0x4(%rbp)
 656:	89 75 f8             	mov    %esi,-0x8(%rbp)
 659:	83 7d fc 01          	cmpl   $0x1,-0x4(%rbp)
 65d:	75 3b                	jne    69a <_Z41__static_initialization_and_destruction_0ii+0x53>
 65f:	81 7d f8 ff ff 00 00 	cmpl   $0xffff,-0x8(%rbp)
 666:	75 32                	jne    69a <_Z41__static_initialization_and_destruction_0ii+0x53>
  extern wostream wclog;	/// Linked to standard error (buffered)
#endif
  ///@}

  // For construction of filebuffers for cout, cin, cerr, clog et. al.
  static ios_base::Init __ioinit;
 668:	48 8d 05 00 00 00 00 	lea    0x0(%rip),%rax        # 66f <_Z41__static_initialization_and_destruction_0ii+0x28>
 66f:	48 89 c7             	mov    %rax,%rdi
 672:	e8 00 00 00 00       	call   677 <_Z41__static_initialization_and_destruction_0ii+0x30>
 677:	48 8d 05 00 00 00 00 	lea    0x0(%rip),%rax        # 67e <_Z41__static_initialization_and_destruction_0ii+0x37>
 67e:	48 89 c2             	mov    %rax,%rdx
 681:	48 8d 05 00 00 00 00 	lea    0x0(%rip),%rax        # 688 <_Z41__static_initialization_and_destruction_0ii+0x41>
 688:	48 89 c6             	mov    %rax,%rsi
 68b:	48 8b 05 00 00 00 00 	mov    0x0(%rip),%rax        # 692 <_Z41__static_initialization_and_destruction_0ii+0x4b>
 692:	48 89 c7             	mov    %rax,%rdi
 695:	e8 00 00 00 00       	call   69a <_Z41__static_initialization_and_destruction_0ii+0x53>
 69a:	90                   	nop
 69b:	c9                   	leave  
 69c:	c3                   	ret    

000000000000069d <_GLOBAL__sub_I__Z8heapsortPii>:
 69d:	f3 0f 1e fa          	endbr64 
 6a1:	55                   	push   %rbp
 6a2:	48 89 e5             	mov    %rsp,%rbp
 6a5:	be ff ff 00 00       	mov    $0xffff,%esi
 6aa:	bf 01 00 00 00       	mov    $0x1,%edi
 6af:	e8 93 ff ff ff       	call   647 <_Z41__static_initialization_and_destruction_0ii>
 6b4:	5d                   	pop    %rbp
 6b5:	c3                   	ret    

Disassembly of section .text._ZnwmPv:

0000000000000000 <_ZnwmPv>:
#endif // __cpp_sized_deallocation
#endif // __cpp_aligned_new

// Default placement versions of operator new.
_GLIBCXX_NODISCARD inline void* operator new(std::size_t, void* __p) _GLIBCXX_USE_NOEXCEPT
{ return __p; }
   0:	f3 0f 1e fa          	endbr64 
   4:	55                   	push   %rbp
   5:	48 89 e5             	mov    %rsp,%rbp
   8:	48 89 7d f8          	mov    %rdi,-0x8(%rbp)
   c:	48 89 75 f0          	mov    %rsi,-0x10(%rbp)
  10:	48 8b 45 f0          	mov    -0x10(%rbp),%rax
  14:	5d                   	pop    %rbp
  15:	c3                   	ret    

Disassembly of section .text._ZSt17__size_to_integerm:

0000000000000000 <_ZSt17__size_to_integerm>:
  inline _GLIBCXX_CONSTEXPR unsigned
  __size_to_integer(unsigned __n) { return __n; }
  inline _GLIBCXX_CONSTEXPR long
  __size_to_integer(long __n) { return __n; }
  inline _GLIBCXX_CONSTEXPR unsigned long
  __size_to_integer(unsigned long __n) { return __n; }
   0:	f3 0f 1e fa          	endbr64 
   4:	55                   	push   %rbp
   5:	48 89 e5             	mov    %rsp,%rbp
   8:	48 89 7d f8          	mov    %rdi,-0x8(%rbp)
   c:	48 8b 45 f8          	mov    -0x8(%rbp),%rax
  10:	5d                   	pop    %rbp
  11:	c3                   	ret    

Disassembly of section .text._ZNSt11char_traitsIcE6lengthEPKc:

0000000000000000 <_ZNSt11char_traitsIcE6lengthEPKc>:
#endif
	return __builtin_memcmp(__s1, __s2, __n);
      }

      static _GLIBCXX17_CONSTEXPR size_t
      length(const char_type* __s)
   0:	f3 0f 1e fa          	endbr64 
   4:	55                   	push   %rbp
   5:	48 89 e5             	mov    %rsp,%rbp
   8:	48 83 ec 20          	sub    $0x20,%rsp
   c:	48 89 7d e8          	mov    %rdi,-0x18(%rbp)
  10:	48 8b 45 e8          	mov    -0x18(%rbp),%rax
  14:	48 89 45 f8          	mov    %rax,-0x8(%rbp)
      return __builtin_is_constant_evaluated();
  18:	b8 00 00 00 00       	mov    $0x0,%eax
      {
#if __cplusplus >= 201703L
	if (__constant_string_p(__s))
  1d:	84 c0                	test   %al,%al
  1f:	74 0e                	je     2f <_ZNSt11char_traitsIcE6lengthEPKc+0x2f>
	  return __gnu_cxx::char_traits<char_type>::length(__s);
  21:	48 8b 45 e8          	mov    -0x18(%rbp),%rax
  25:	48 89 c7             	mov    %rax,%rdi
  28:	e8 00 00 00 00       	call   2d <_ZNSt11char_traitsIcE6lengthEPKc+0x2d>
  2d:	eb 0d                	jmp    3c <_ZNSt11char_traitsIcE6lengthEPKc+0x3c>
#endif
	return __builtin_strlen(__s);
  2f:	48 8b 45 e8          	mov    -0x18(%rbp),%rax
  33:	48 89 c7             	mov    %rax,%rdi
  36:	e8 00 00 00 00       	call   3b <_ZNSt11char_traitsIcE6lengthEPKc+0x3b>
  3b:	90                   	nop
      }
  3c:	c9                   	leave  
  3d:	c3                   	ret    

Disassembly of section .text._ZNSt13random_deviceC2Ev:

0000000000000000 <_ZNSt13random_deviceC1Ev>:
    /** The type of the generated random value. */
    typedef unsigned int result_type;

    // constructors, destructors and member functions

    random_device() { _M_init("default"); }
   0:	f3 0f 1e fa          	endbr64 
   4:	55                   	push   %rbp
   5:	48 89 e5             	mov    %rsp,%rbp
   8:	53                   	push   %rbx
   9:	48 83 ec 58          	sub    $0x58,%rsp
   d:	48 89 7d a8          	mov    %rdi,-0x58(%rbp)
  11:	64 48 8b 04 25 28 00 	mov    %fs:0x28,%rax
  18:	00 00 
  1a:	48 89 45 e8          	mov    %rax,-0x18(%rbp)
  1e:	31 c0                	xor    %eax,%eax
  20:	48 8d 45 bf          	lea    -0x41(%rbp),%rax
  24:	48 89 c7             	mov    %rax,%rdi
  27:	e8 00 00 00 00       	call   2c <_ZNSt13random_deviceC1Ev+0x2c>
  2c:	48 8d 55 bf          	lea    -0x41(%rbp),%rdx
  30:	48 8d 45 c0          	lea    -0x40(%rbp),%rax
  34:	48 8d 0d 00 00 00 00 	lea    0x0(%rip),%rcx        # 3b <_ZNSt13random_deviceC1Ev+0x3b>
  3b:	48 89 ce             	mov    %rcx,%rsi
  3e:	48 89 c7             	mov    %rax,%rdi
  41:	e8 00 00 00 00       	call   46 <_ZNSt13random_deviceC1Ev+0x46>
  46:	48 8d 55 c0          	lea    -0x40(%rbp),%rdx
  4a:	48 8b 45 a8          	mov    -0x58(%rbp),%rax
  4e:	48 89 d6             	mov    %rdx,%rsi
  51:	48 89 c7             	mov    %rax,%rdi
  54:	e8 00 00 00 00       	call   59 <_ZNSt13random_deviceC1Ev+0x59>
  59:	48 8d 45 c0          	lea    -0x40(%rbp),%rax
  5d:	48 89 c7             	mov    %rax,%rdi
  60:	e8 00 00 00 00       	call   65 <_ZNSt13random_deviceC1Ev+0x65>
  65:	48 8d 45 bf          	lea    -0x41(%rbp),%rax
  69:	48 89 c7             	mov    %rax,%rdi
  6c:	e8 00 00 00 00       	call   71 <_ZNSt13random_deviceC1Ev+0x71>
  71:	90                   	nop
  72:	48 8b 45 e8          	mov    -0x18(%rbp),%rax
  76:	64 48 2b 04 25 28 00 	sub    %fs:0x28,%rax
  7d:	00 00 
  7f:	74 3a                	je     bb <_ZNSt13random_deviceC1Ev+0xbb>
  81:	eb 33                	jmp    b6 <_ZNSt13random_deviceC1Ev+0xb6>
  83:	f3 0f 1e fa          	endbr64 
  87:	48 89 c3             	mov    %rax,%rbx
  8a:	48 8d 45 c0          	lea    -0x40(%rbp),%rax
  8e:	48 89 c7             	mov    %rax,%rdi
  91:	e8 00 00 00 00       	call   96 <_ZNSt13random_deviceC1Ev+0x96>
  96:	eb 07                	jmp    9f <_ZNSt13random_deviceC1Ev+0x9f>
  98:	f3 0f 1e fa          	endbr64 
  9c:	48 89 c3             	mov    %rax,%rbx
  9f:	48 8d 45 bf          	lea    -0x41(%rbp),%rax
  a3:	48 89 c7             	mov    %rax,%rdi
  a6:	e8 00 00 00 00       	call   ab <_ZNSt13random_deviceC1Ev+0xab>
  ab:	48 89 d8             	mov    %rbx,%rax
  ae:	48 89 c7             	mov    %rax,%rdi
  b1:	e8 00 00 00 00       	call   b6 <_ZNSt13random_deviceC1Ev+0xb6>
  b6:	e8 00 00 00 00       	call   bb <_ZNSt13random_deviceC1Ev+0xbb>
  bb:	48 8b 5d f8          	mov    -0x8(%rbp),%rbx
  bf:	c9                   	leave  
  c0:	c3                   	ret    

Disassembly of section .text._ZNSt13random_deviceD2Ev:

0000000000000000 <_ZNSt13random_deviceD1Ev>:

    explicit
    random_device(const std::string& __token) { _M_init(__token); }

#if defined _GLIBCXX_USE_DEV_RANDOM
    ~random_device()
   0:	f3 0f 1e fa          	endbr64 
   4:	55                   	push   %rbp
   5:	48 89 e5             	mov    %rsp,%rbp
   8:	48 83 ec 10          	sub    $0x10,%rsp
   c:	48 89 7d f8          	mov    %rdi,-0x8(%rbp)
    { _M_fini(); }
  10:	48 8b 45 f8          	mov    -0x8(%rbp),%rax
  14:	48 89 c7             	mov    %rax,%rdi
  17:	e8 00 00 00 00       	call   1c <_ZNSt13random_deviceD1Ev+0x1c>
  1c:	90                   	nop
  1d:	c9                   	leave  
  1e:	c3                   	ret    

Disassembly of section .text._ZNSt13random_deviceclEv:

0000000000000000 <_ZNSt13random_deviceclEv>:
      return 0.0;
#endif
    }

    result_type
    operator()()
   0:	f3 0f 1e fa          	endbr64 
   4:	55                   	push   %rbp
   5:	48 89 e5             	mov    %rsp,%rbp
   8:	48 83 ec 10          	sub    $0x10,%rsp
   c:	48 89 7d f8          	mov    %rdi,-0x8(%rbp)
    { return this->_M_getval(); }
  10:	48 8b 45 f8          	mov    -0x8(%rbp),%rax
  14:	48 89 c7             	mov    %rax,%rdi
  17:	e8 00 00 00 00       	call   1c <_ZNSt13random_deviceclEv+0x1c>
  1c:	c9                   	leave  
  1d:	c3                   	ret    

Disassembly of section .text._ZNSt12_Vector_baseIiSaIiEE12_Vector_implD2Ev:

0000000000000000 <_ZNSt12_Vector_baseIiSaIiEE12_Vector_implD1Ev>:
	  _M_copy_data(__x);
	  __x._M_copy_data(__tmp);
	}
      };

      struct _Vector_impl
   0:	f3 0f 1e fa          	endbr64 
   4:	55                   	push   %rbp
   5:	48 89 e5             	mov    %rsp,%rbp
   8:	48 83 ec 10          	sub    $0x10,%rsp
   c:	48 89 7d f8          	mov    %rdi,-0x8(%rbp)
  10:	48 8b 45 f8          	mov    -0x8(%rbp),%rax
  14:	48 89 c7             	mov    %rax,%rdi
  17:	e8 00 00 00 00       	call   1c <_ZNSt12_Vector_baseIiSaIiEE12_Vector_implD1Ev+0x1c>
  1c:	90                   	nop
  1d:	c9                   	leave  
  1e:	c3                   	ret    

Disassembly of section .text._ZN9__gnu_cxx11char_traitsIcE2eqERKcS3_:

0000000000000000 <_ZN9__gnu_cxx11char_traitsIcE2eqERKcS3_>:
      eq(const char_type& __c1, const char_type& __c2)
   0:	f3 0f 1e fa          	endbr64 
   4:	55                   	push   %rbp
   5:	48 89 e5             	mov    %rsp,%rbp
   8:	48 89 7d f8          	mov    %rdi,-0x8(%rbp)
   c:	48 89 75 f0          	mov    %rsi,-0x10(%rbp)
      { return __c1 == __c2; }
  10:	48 8b 45 f8          	mov    -0x8(%rbp),%rax
  14:	0f b6 10             	movzbl (%rax),%edx
  17:	48 8b 45 f0          	mov    -0x10(%rbp),%rax
  1b:	0f b6 00             	movzbl (%rax),%eax
  1e:	38 c2                	cmp    %al,%dl
  20:	0f 94 c0             	sete   %al
  23:	5d                   	pop    %rbp
  24:	c3                   	ret    

Disassembly of section .text._ZN9__gnu_cxx11char_traitsIcE6lengthEPKc:

0000000000000000 <_ZN9__gnu_cxx11char_traitsIcE6lengthEPKc>:
    char_traits<_CharT>::
   0:	f3 0f 1e fa          	endbr64 
   4:	55                   	push   %rbp
   5:	48 89 e5             	mov    %rsp,%rbp
   8:	48 83 ec 30          	sub    $0x30,%rsp
   c:	48 89 7d d8          	mov    %rdi,-0x28(%rbp)
  10:	64 48 8b 04 25 28 00 	mov    %fs:0x28,%rax
  17:	00 00 
  19:	48 89 45 f8          	mov    %rax,-0x8(%rbp)
  1d:	31 c0                	xor    %eax,%eax
      std::size_t __i = 0;
  1f:	48 c7 45 f0 00 00 00 	movq   $0x0,-0x10(%rbp)
  26:	00 
      while (!eq(__p[__i], char_type()))
  27:	eb 05                	jmp    2e <_ZN9__gnu_cxx11char_traitsIcE6lengthEPKc+0x2e>
        ++__i;
  29:	48 83 45 f0 01       	addq   $0x1,-0x10(%rbp)
      while (!eq(__p[__i], char_type()))
  2e:	c6 45 ef 00          	movb   $0x0,-0x11(%rbp)
  32:	48 8b 55 d8          	mov    -0x28(%rbp),%rdx
  36:	48 8b 45 f0          	mov    -0x10(%rbp),%rax
  3a:	48 01 c2             	add    %rax,%rdx
  3d:	48 8d 45 ef          	lea    -0x11(%rbp),%rax
  41:	48 89 c6             	mov    %rax,%rsi
  44:	48 89 d7             	mov    %rdx,%rdi
  47:	e8 00 00 00 00       	call   4c <_ZN9__gnu_cxx11char_traitsIcE6lengthEPKc+0x4c>
  4c:	83 f0 01             	xor    $0x1,%eax
  4f:	84 c0                	test   %al,%al
  51:	75 d6                	jne    29 <_ZN9__gnu_cxx11char_traitsIcE6lengthEPKc+0x29>
      return __i;
  53:	48 8b 45 f0          	mov    -0x10(%rbp),%rax
    }
  57:	48 8b 55 f8          	mov    -0x8(%rbp),%rdx
  5b:	64 48 2b 14 25 28 00 	sub    %fs:0x28,%rdx
  62:	00 00 
  64:	74 05                	je     6b <_ZN9__gnu_cxx11char_traitsIcE6lengthEPKc+0x6b>
  66:	e8 00 00 00 00       	call   6b <_ZN9__gnu_cxx11char_traitsIcE6lengthEPKc+0x6b>
  6b:	c9                   	leave  
  6c:	c3                   	ret    

Disassembly of section .text._ZNSt7__cxx1112basic_stringIcSt11char_traitsIcESaIcEE12_Alloc_hiderD2Ev:

0000000000000000 <_ZNSt7__cxx1112basic_stringIcSt11char_traitsIcESaIcEE12_Alloc_hiderD1Ev>:
      basic_string(__sv_wrapper __svw, const _Alloc& __a)
      : basic_string(__svw._M_sv.data(), __svw._M_sv.size(), __a) { }
#endif

      // Use empty-base optimization: http://www.cantrip.org/emptyopt.html
      struct _Alloc_hider : allocator_type // TODO check __is_final
   0:	f3 0f 1e fa          	endbr64 
   4:	55                   	push   %rbp
   5:	48 89 e5             	mov    %rsp,%rbp
   8:	48 83 ec 10          	sub    $0x10,%rsp
   c:	48 89 7d f8          	mov    %rdi,-0x8(%rbp)
  10:	48 8b 45 f8          	mov    -0x8(%rbp),%rax
  14:	48 89 c7             	mov    %rax,%rdi
  17:	e8 00 00 00 00       	call   1c <_ZNSt7__cxx1112basic_stringIcSt11char_traitsIcESaIcEE12_Alloc_hiderD1Ev+0x1c>
  1c:	90                   	nop
  1d:	c9                   	leave  
  1e:	c3                   	ret    

Disassembly of section .text._ZNSt7__cxx1112basic_stringIcSt11char_traitsIcESaIcEEC2IS3_EEPKcRKS3_:

0000000000000000 <_ZNSt7__cxx1112basic_stringIcSt11char_traitsIcESaIcEEC1IS3_EEPKcRKS3_>:
#if __cpp_deduction_guides && ! defined _GLIBCXX_DEFINING_STRING_INSTANTIATIONS
      // _GLIBCXX_RESOLVE_LIB_DEFECTS
      // 3076. basic_string CTAD ambiguity
      template<typename = _RequireAllocator<_Alloc>>
#endif
      basic_string(const _CharT* __s, const _Alloc& __a = _Alloc())
   0:	f3 0f 1e fa          	endbr64 
   4:	55                   	push   %rbp
   5:	48 89 e5             	mov    %rsp,%rbp
   8:	53                   	push   %rbx
   9:	48 83 ec 48          	sub    $0x48,%rsp
   d:	48 89 7d c8          	mov    %rdi,-0x38(%rbp)
  11:	48 89 75 c0          	mov    %rsi,-0x40(%rbp)
  15:	48 89 55 b8          	mov    %rdx,-0x48(%rbp)
  19:	64 48 8b 04 25 28 00 	mov    %fs:0x28,%rax
  20:	00 00 
  22:	48 89 45 e8          	mov    %rax,-0x18(%rbp)
  26:	31 c0                	xor    %eax,%eax
      : _M_dataplus(_M_local_data(), __a)
  28:	48 8b 5d c8          	mov    -0x38(%rbp),%rbx
  2c:	48 8b 45 c8          	mov    -0x38(%rbp),%rax
  30:	48 89 c7             	mov    %rax,%rdi
  33:	e8 00 00 00 00       	call   38 <_ZNSt7__cxx1112basic_stringIcSt11char_traitsIcESaIcEEC1IS3_EEPKcRKS3_+0x38>
  38:	48 89 c1             	mov    %rax,%rcx
  3b:	48 8b 45 b8          	mov    -0x48(%rbp),%rax
  3f:	48 89 c2             	mov    %rax,%rdx
  42:	48 89 ce             	mov    %rcx,%rsi
  45:	48 89 df             	mov    %rbx,%rdi
  48:	e8 00 00 00 00       	call   4d <_ZNSt7__cxx1112basic_stringIcSt11char_traitsIcESaIcEEC1IS3_EEPKcRKS3_+0x4d>
      {
	const _CharT* __end = __s ? __s + traits_type::length(__s)
  4d:	48 83 7d c0 00       	cmpq   $0x0,-0x40(%rbp)
  52:	74 15                	je     69 <_ZNSt7__cxx1112basic_stringIcSt11char_traitsIcESaIcEEC1IS3_EEPKcRKS3_+0x69>
  54:	48 8b 45 c0          	mov    -0x40(%rbp),%rax
  58:	48 89 c7             	mov    %rax,%rdi
  5b:	e8 00 00 00 00       	call   60 <_ZNSt7__cxx1112basic_stringIcSt11char_traitsIcESaIcEEC1IS3_EEPKcRKS3_+0x60>
  60:	48 8b 55 c0          	mov    -0x40(%rbp),%rdx
  64:	48 01 d0             	add    %rdx,%rax
  67:	eb 05                	jmp    6e <_ZNSt7__cxx1112basic_stringIcSt11char_traitsIcESaIcEEC1IS3_EEPKcRKS3_+0x6e>
  69:	b8 01 00 00 00       	mov    $0x1,%eax
  6e:	48 89 45 e0          	mov    %rax,-0x20(%rbp)
	  // We just need a non-null pointer here to get an exception:
	  : reinterpret_cast<const _CharT*>(__alignof__(_CharT));
	_M_construct(__s, __end, random_access_iterator_tag());
  72:	48 8b 55 e0          	mov    -0x20(%rbp),%rdx
  76:	48 8b 4d c0          	mov    -0x40(%rbp),%rcx
  7a:	48 8b 45 c8          	mov    -0x38(%rbp),%rax
  7e:	48 89 ce             	mov    %rcx,%rsi
  81:	48 89 c7             	mov    %rax,%rdi
  84:	e8 00 00 00 00       	call   89 <_ZNSt7__cxx1112basic_stringIcSt11char_traitsIcESaIcEEC1IS3_EEPKcRKS3_+0x89>
      }
  89:	eb 1e                	jmp    a9 <_ZNSt7__cxx1112basic_stringIcSt11char_traitsIcESaIcEEC1IS3_EEPKcRKS3_+0xa9>
  8b:	f3 0f 1e fa          	endbr64 
  8f:	48 89 c3             	mov    %rax,%rbx
  92:	48 8b 45 c8          	mov    -0x38(%rbp),%rax
  96:	48 89 c7             	mov    %rax,%rdi
  99:	e8 00 00 00 00       	call   9e <_ZNSt7__cxx1112basic_stringIcSt11char_traitsIcESaIcEEC1IS3_EEPKcRKS3_+0x9e>
  9e:	48 89 d8             	mov    %rbx,%rax
  a1:	48 89 c7             	mov    %rax,%rdi
  a4:	e8 00 00 00 00       	call   a9 <_ZNSt7__cxx1112basic_stringIcSt11char_traitsIcESaIcEEC1IS3_EEPKcRKS3_+0xa9>
  a9:	48 8b 45 e8          	mov    -0x18(%rbp),%rax
  ad:	64 48 2b 04 25 28 00 	sub    %fs:0x28,%rax
  b4:	00 00 
  b6:	74 05                	je     bd <_ZNSt7__cxx1112basic_stringIcSt11char_traitsIcESaIcEEC1IS3_EEPKcRKS3_+0xbd>
  b8:	e8 00 00 00 00       	call   bd <_ZNSt7__cxx1112basic_stringIcSt11char_traitsIcESaIcEEC1IS3_EEPKcRKS3_+0xbd>
  bd:	48 8b 5d f8          	mov    -0x8(%rbp),%rbx
  c1:	c9                   	leave  
  c2:	c3                   	ret    

Disassembly of section .text._ZNSt23mersenne_twister_engineImLm32ELm624ELm397ELm31ELm2567483615ELm11ELm4294967295ELm7ELm2636928640ELm15ELm4022730752ELm18ELm1812433253EEC2Em:

0000000000000000 <_ZNSt23mersenne_twister_engineImLm32ELm624ELm397ELm31ELm2567483615ELm11ELm4294967295ELm7ELm2636928640ELm15ELm4022730752ELm18ELm1812433253EEC1Em>:
      mersenne_twister_engine(result_type __sd)
   0:	f3 0f 1e fa          	endbr64 
   4:	55                   	push   %rbp
   5:	48 89 e5             	mov    %rsp,%rbp
   8:	48 83 ec 10          	sub    $0x10,%rsp
   c:	48 89 7d f8          	mov    %rdi,-0x8(%rbp)
  10:	48 89 75 f0          	mov    %rsi,-0x10(%rbp)
      { seed(__sd); }
  14:	48 8b 55 f0          	mov    -0x10(%rbp),%rdx
  18:	48 8b 45 f8          	mov    -0x8(%rbp),%rax
  1c:	48 89 d6             	mov    %rdx,%rsi
  1f:	48 89 c7             	mov    %rax,%rdi
  22:	e8 00 00 00 00       	call   27 <_ZNSt23mersenne_twister_engineImLm32ELm624ELm397ELm31ELm2567483615ELm11ELm4294967295ELm7ELm2636928640ELm15ELm4022730752ELm18ELm1812433253EEC1Em+0x27>
  27:	90                   	nop
  28:	c9                   	leave  
  29:	c3                   	ret    

Disassembly of section .text._ZNSt24uniform_int_distributionIiEC2Eii:

0000000000000000 <_ZNSt24uniform_int_distributionIiEC1Eii>:

      /**
       * @brief Constructs a uniform distribution object.
       */
      explicit
      uniform_int_distribution(_IntType __a,
   0:	f3 0f 1e fa          	endbr64 
   4:	55                   	push   %rbp
   5:	48 89 e5             	mov    %rsp,%rbp
   8:	48 83 ec 10          	sub    $0x10,%rsp
   c:	48 89 7d f8          	mov    %rdi,-0x8(%rbp)
  10:	89 75 f4             	mov    %esi,-0xc(%rbp)
  13:	89 55 f0             	mov    %edx,-0x10(%rbp)
			       _IntType __b
				 = __gnu_cxx::__int_traits<_IntType>::__max)
      : _M_param(__a, __b)
  16:	48 8b 45 f8          	mov    -0x8(%rbp),%rax
  1a:	8b 55 f0             	mov    -0x10(%rbp),%edx
  1d:	8b 4d f4             	mov    -0xc(%rbp),%ecx
  20:	89 ce                	mov    %ecx,%esi
  22:	48 89 c7             	mov    %rax,%rdi
  25:	e8 00 00 00 00       	call   2a <_ZNSt24uniform_int_distributionIiEC1Eii+0x2a>
      { }
  2a:	90                   	nop
  2b:	c9                   	leave  
  2c:	c3                   	ret    

Disassembly of section .text._ZNSt24uniform_int_distributionIiEclISt23mersenne_twister_engineImLm32ELm624ELm397ELm31ELm2567483615ELm11ELm4294967295ELm7ELm2636928640ELm15ELm4022730752ELm18ELm1812433253EEEEiRT_:

0000000000000000 <_ZNSt24uniform_int_distributionIiEclISt23mersenne_twister_engineImLm32ELm624ELm397ELm31ELm2567483615ELm11ELm4294967295ELm7ELm2636928640ELm15ELm4022730752ELm18ELm1812433253EEEEiRT_>:
      /**
       * @brief Generating functions.
       */
      template<typename _UniformRandomBitGenerator>
	result_type
	operator()(_UniformRandomBitGenerator& __urng)
   0:	f3 0f 1e fa          	endbr64 
   4:	55                   	push   %rbp
   5:	48 89 e5             	mov    %rsp,%rbp
   8:	48 83 ec 10          	sub    $0x10,%rsp
   c:	48 89 7d f8          	mov    %rdi,-0x8(%rbp)
  10:	48 89 75 f0          	mov    %rsi,-0x10(%rbp)
        { return this->operator()(__urng, _M_param); }
  14:	48 8b 55 f8          	mov    -0x8(%rbp),%rdx
  18:	48 8b 4d f0          	mov    -0x10(%rbp),%rcx
  1c:	48 8b 45 f8          	mov    -0x8(%rbp),%rax
  20:	48 89 ce             	mov    %rcx,%rsi
  23:	48 89 c7             	mov    %rax,%rdi
  26:	e8 00 00 00 00       	call   2b <_ZNSt24uniform_int_distributionIiEclISt23mersenne_twister_engineImLm32ELm624ELm397ELm31ELm2567483615ELm11ELm4294967295ELm7ELm2636928640ELm15ELm4022730752ELm18ELm1812433253EEEEiRT_+0x2b>
  2b:	c9                   	leave  
  2c:	c3                   	ret    

Disassembly of section .text._ZNKSt6vectorIiSaIiEE5emptyEv:

0000000000000000 <_ZNKSt6vectorIiSaIiEE5emptyEv>:
      /**
       *  Returns true if the %vector is empty.  (Thus begin() would
       *  equal end().)
       */
      _GLIBCXX_NODISCARD bool
      empty() const _GLIBCXX_NOEXCEPT
   0:	f3 0f 1e fa          	endbr64 
   4:	55                   	push   %rbp
   5:	48 89 e5             	mov    %rsp,%rbp
   8:	48 83 ec 30          	sub    $0x30,%rsp
   c:	48 89 7d d8          	mov    %rdi,-0x28(%rbp)
  10:	64 48 8b 04 25 28 00 	mov    %fs:0x28,%rax
  17:	00 00 
  19:	48 89 45 f8          	mov    %rax,-0x8(%rbp)
  1d:	31 c0                	xor    %eax,%eax
      { return begin() == end(); }
  1f:	48 8b 45 d8          	mov    -0x28(%rbp),%rax
  23:	48 89 c7             	mov    %rax,%rdi
  26:	e8 00 00 00 00       	call   2b <_ZNKSt6vectorIiSaIiEE5emptyEv+0x2b>
  2b:	48 89 45 f0          	mov    %rax,-0x10(%rbp)
  2f:	48 8b 45 d8          	mov    -0x28(%rbp),%rax
  33:	48 89 c7             	mov    %rax,%rdi
  36:	e8 00 00 00 00       	call   3b <_ZNKSt6vectorIiSaIiEE5emptyEv+0x3b>
  3b:	48 89 45 e8          	mov    %rax,-0x18(%rbp)
  3f:	48 8d 55 f0          	lea    -0x10(%rbp),%rdx
  43:	48 8d 45 e8          	lea    -0x18(%rbp),%rax
  47:	48 89 d6             	mov    %rdx,%rsi
  4a:	48 89 c7             	mov    %rax,%rdi
  4d:	e8 00 00 00 00       	call   52 <_ZNKSt6vectorIiSaIiEE5emptyEv+0x52>
  52:	48 8b 55 f8          	mov    -0x8(%rbp),%rdx
  56:	64 48 2b 14 25 28 00 	sub    %fs:0x28,%rdx
  5d:	00 00 
  5f:	74 05                	je     66 <_ZNKSt6vectorIiSaIiEE5emptyEv+0x66>
  61:	e8 00 00 00 00       	call   66 <_ZNKSt6vectorIiSaIiEE5emptyEv+0x66>
  66:	c9                   	leave  
  67:	c3                   	ret    

Disassembly of section .text._ZNKSt6vectorIiSaIiEE4sizeEv:

0000000000000000 <_ZNKSt6vectorIiSaIiEE4sizeEv>:
      size() const _GLIBCXX_NOEXCEPT
   0:	f3 0f 1e fa          	endbr64 
   4:	55                   	push   %rbp
   5:	48 89 e5             	mov    %rsp,%rbp
   8:	48 89 7d f8          	mov    %rdi,-0x8(%rbp)
      { return size_type(this->_M_impl._M_finish - this->_M_impl._M_start); }
   c:	48 8b 45 f8          	mov    -0x8(%rbp),%rax
  10:	48 8b 50 08          	mov    0x8(%rax),%rdx
  14:	48 8b 45 f8          	mov    -0x8(%rbp),%rax
  18:	48 8b 08             	mov    (%rax),%rcx
  1b:	48 89 d0             	mov    %rdx,%rax
  1e:	48 29 c8             	sub    %rcx,%rax
  21:	48 c1 f8 02          	sar    $0x2,%rax
  25:	5d                   	pop    %rbp
  26:	c3                   	ret    

Disassembly of section .text._ZNSt6vectorIiSaIiEEixEm:

0000000000000000 <_ZNSt6vectorIiSaIiEEixEm>:
       *  Note that data access with this operator is unchecked and
       *  out_of_range lookups are not defined. (For checked lookups
       *  see at().)
       */
      reference
      operator[](size_type __n) _GLIBCXX_NOEXCEPT
   0:	f3 0f 1e fa          	endbr64 
   4:	55                   	push   %rbp
   5:	48 89 e5             	mov    %rsp,%rbp
   8:	48 89 7d f8          	mov    %rdi,-0x8(%rbp)
   c:	48 89 75 f0          	mov    %rsi,-0x10(%rbp)
      {
	__glibcxx_requires_subscript(__n);
	return *(this->_M_impl._M_start + __n);
  10:	48 8b 45 f8          	mov    -0x8(%rbp),%rax
  14:	48 8b 10             	mov    (%rax),%rdx
  17:	48 8b 45 f0          	mov    -0x10(%rbp),%rax
  1b:	48 c1 e0 02          	shl    $0x2,%rax
  1f:	48 01 d0             	add    %rdx,%rax
      }
  22:	5d                   	pop    %rbp
  23:	c3                   	ret    

Disassembly of section .text._ZNSaIiEC2Ev:

0000000000000000 <_ZNSaIiEC1Ev>:
#endif

      // _GLIBCXX_RESOLVE_LIB_DEFECTS
      // 3035. std::allocator's constructors should be constexpr
      _GLIBCXX20_CONSTEXPR
      allocator() _GLIBCXX_NOTHROW { }
   0:	f3 0f 1e fa          	endbr64 
   4:	55                   	push   %rbp
   5:	48 89 e5             	mov    %rsp,%rbp
   8:	48 83 ec 10          	sub    $0x10,%rsp
   c:	48 89 7d f8          	mov    %rdi,-0x8(%rbp)
  10:	48 8b 45 f8          	mov    -0x8(%rbp),%rax
  14:	48 89 c7             	mov    %rax,%rdi
  17:	e8 00 00 00 00       	call   1c <_ZNSaIiEC1Ev+0x1c>
  1c:	90                   	nop
  1d:	c9                   	leave  
  1e:	c3                   	ret    

Disassembly of section .text._ZNSaIiED2Ev:

0000000000000000 <_ZNSaIiED1Ev>:
	allocator(const allocator<_Tp1>&) _GLIBCXX_NOTHROW { }

#if __cpp_constexpr_dynamic_alloc
      constexpr
#endif
      ~allocator() _GLIBCXX_NOTHROW { }
   0:	f3 0f 1e fa          	endbr64 
   4:	55                   	push   %rbp
   5:	48 89 e5             	mov    %rsp,%rbp
   8:	48 83 ec 10          	sub    $0x10,%rsp
   c:	48 89 7d f8          	mov    %rdi,-0x8(%rbp)
  10:	48 8b 45 f8          	mov    -0x8(%rbp),%rax
  14:	48 89 c7             	mov    %rax,%rdi
  17:	e8 00 00 00 00       	call   1c <_ZNSaIiED1Ev+0x1c>
  1c:	90                   	nop
  1d:	c9                   	leave  
  1e:	c3                   	ret    

Disassembly of section .text._ZNSt6vectorIiSaIiEEC2EmRKS0_:

0000000000000000 <_ZNSt6vectorIiSaIiEEC1EmRKS0_>:
      vector(size_type __n, const allocator_type& __a = allocator_type())
   0:	f3 0f 1e fa          	endbr64 
   4:	55                   	push   %rbp
   5:	48 89 e5             	mov    %rsp,%rbp
   8:	53                   	push   %rbx
   9:	48 83 ec 28          	sub    $0x28,%rsp
   d:	48 89 7d e8          	mov    %rdi,-0x18(%rbp)
  11:	48 89 75 e0          	mov    %rsi,-0x20(%rbp)
  15:	48 89 55 d8          	mov    %rdx,-0x28(%rbp)
      : _Base(_S_check_init_len(__n, __a), __a)
  19:	48 8b 5d e8          	mov    -0x18(%rbp),%rbx
  1d:	48 8b 55 d8          	mov    -0x28(%rbp),%rdx
  21:	48 8b 45 e0          	mov    -0x20(%rbp),%rax
  25:	48 89 d6             	mov    %rdx,%rsi
  28:	48 89 c7             	mov    %rax,%rdi
  2b:	e8 00 00 00 00       	call   30 <_ZNSt6vectorIiSaIiEEC1EmRKS0_+0x30>
  30:	48 89 c1             	mov    %rax,%rcx
  33:	48 8b 45 d8          	mov    -0x28(%rbp),%rax
  37:	48 89 c2             	mov    %rax,%rdx
  3a:	48 89 ce             	mov    %rcx,%rsi
  3d:	48 89 df             	mov    %rbx,%rdi
  40:	e8 00 00 00 00       	call   45 <_ZNSt6vectorIiSaIiEEC1EmRKS0_+0x45>
      { _M_default_initialize(__n); }
  45:	48 8b 55 e0          	mov    -0x20(%rbp),%rdx
  49:	48 8b 45 e8          	mov    -0x18(%rbp),%rax
  4d:	48 89 d6             	mov    %rdx,%rsi
  50:	48 89 c7             	mov    %rax,%rdi
  53:	e8 00 00 00 00       	call   58 <_ZNSt6vectorIiSaIiEEC1EmRKS0_+0x58>
  58:	eb 1e                	jmp    78 <_ZNSt6vectorIiSaIiEEC1EmRKS0_+0x78>
  5a:	f3 0f 1e fa          	endbr64 
  5e:	48 89 c3             	mov    %rax,%rbx
  61:	48 8b 45 e8          	mov    -0x18(%rbp),%rax
  65:	48 89 c7             	mov    %rax,%rdi
  68:	e8 00 00 00 00       	call   6d <_ZNSt6vectorIiSaIiEEC1EmRKS0_+0x6d>
  6d:	48 89 d8             	mov    %rbx,%rax
  70:	48 89 c7             	mov    %rax,%rdi
  73:	e8 00 00 00 00       	call   78 <_ZNSt6vectorIiSaIiEEC1EmRKS0_+0x78>
  78:	48 8b 5d f8          	mov    -0x8(%rbp),%rbx
  7c:	c9                   	leave  
  7d:	c3                   	ret    

Disassembly of section .text._ZNSt12_Vector_baseIiSaIiEED2Ev:

0000000000000000 <_ZNSt12_Vector_baseIiSaIiEED1Ev>:
      ~_Vector_base() _GLIBCXX_NOEXCEPT
   0:	f3 0f 1e fa          	endbr64 
   4:	55                   	push   %rbp
   5:	48 89 e5             	mov    %rsp,%rbp
   8:	48 83 ec 10          	sub    $0x10,%rsp
   c:	48 89 7d f8          	mov    %rdi,-0x8(%rbp)
		      _M_impl._M_end_of_storage - _M_impl._M_start);
  10:	48 8b 45 f8          	mov    -0x8(%rbp),%rax
  14:	48 8b 50 10          	mov    0x10(%rax),%rdx
  18:	48 8b 45 f8          	mov    -0x8(%rbp),%rax
  1c:	48 8b 08             	mov    (%rax),%rcx
  1f:	48 89 d0             	mov    %rdx,%rax
  22:	48 29 c8             	sub    %rcx,%rax
  25:	48 c1 f8 02          	sar    $0x2,%rax
	_M_deallocate(_M_impl._M_start,
  29:	48 89 c2             	mov    %rax,%rdx
  2c:	48 8b 45 f8          	mov    -0x8(%rbp),%rax
  30:	48 8b 08             	mov    (%rax),%rcx
  33:	48 8b 45 f8          	mov    -0x8(%rbp),%rax
  37:	48 89 ce             	mov    %rcx,%rsi
  3a:	48 89 c7             	mov    %rax,%rdi
  3d:	e8 00 00 00 00       	call   42 <_ZNSt12_Vector_baseIiSaIiEED1Ev+0x42>
      }
  42:	48 8b 45 f8          	mov    -0x8(%rbp),%rax
  46:	48 89 c7             	mov    %rax,%rdi
  49:	e8 00 00 00 00       	call   4e <_ZNSt12_Vector_baseIiSaIiEED1Ev+0x4e>
  4e:	90                   	nop
  4f:	c9                   	leave  
  50:	c3                   	ret    

Disassembly of section .text._ZSt8distanceIPKcENSt15iterator_traitsIT_E15difference_typeES3_S3_:

0000000000000000 <_ZSt8distanceIPKcENSt15iterator_traitsIT_E15difference_typeES3_S3_>:
   *  and are constant time.  For other %iterator classes they are linear time.
  */
  template<typename _InputIterator>
    inline _GLIBCXX17_CONSTEXPR
    typename iterator_traits<_InputIterator>::difference_type
    distance(_InputIterator __first, _InputIterator __last)
   0:	f3 0f 1e fa          	endbr64 
   4:	55                   	push   %rbp
   5:	48 89 e5             	mov    %rsp,%rbp
   8:	48 83 ec 10          	sub    $0x10,%rsp
   c:	48 89 7d f8          	mov    %rdi,-0x8(%rbp)
  10:	48 89 75 f0          	mov    %rsi,-0x10(%rbp)
    {
      // concept requirements -- taken care of in __distance
      return std::__distance(__first, __last,
			     std::__iterator_category(__first));
  14:	48 8d 45 f8          	lea    -0x8(%rbp),%rax
  18:	48 89 c7             	mov    %rax,%rdi
  1b:	e8 00 00 00 00       	call   20 <_ZSt8distanceIPKcENSt15iterator_traitsIT_E15difference_typeES3_S3_+0x20>
      return std::__distance(__first, __last,
  20:	48 8b 45 f8          	mov    -0x8(%rbp),%rax
  24:	48 8b 55 f0          	mov    -0x10(%rbp),%rdx
  28:	48 89 d6             	mov    %rdx,%rsi
  2b:	48 89 c7             	mov    %rax,%rdi
  2e:	e8 00 00 00 00       	call   33 <_ZSt8distanceIPKcENSt15iterator_traitsIT_E15difference_typeES3_S3_+0x33>
    }
  33:	c9                   	leave  
  34:	c3                   	ret    

Disassembly of section .text._ZNSt7__cxx1112basic_stringIcSt11char_traitsIcESaIcEE12_M_constructIPKcEEvT_S8_St20forward_iterator_tag:

0000000000000000 <_ZNSt7__cxx1112basic_stringIcSt11char_traitsIcESaIcEE12_M_constructIPKcEEvT_S8_St20forward_iterator_tag>:
      }

  template<typename _CharT, typename _Traits, typename _Alloc>
    template<typename _InIterator>
      void
      basic_string<_CharT, _Traits, _Alloc>::
   0:	f3 0f 1e fa          	endbr64 
   4:	55                   	push   %rbp
   5:	48 89 e5             	mov    %rsp,%rbp
   8:	53                   	push   %rbx
   9:	48 83 ec 38          	sub    $0x38,%rsp
   d:	48 89 7d d8          	mov    %rdi,-0x28(%rbp)
  11:	48 89 75 d0          	mov    %rsi,-0x30(%rbp)
  15:	48 89 55 c8          	mov    %rdx,-0x38(%rbp)
  19:	64 48 8b 04 25 28 00 	mov    %fs:0x28,%rax
  20:	00 00 
  22:	48 89 45 e8          	mov    %rax,-0x18(%rbp)
  26:	31 c0                	xor    %eax,%eax
      _M_construct(_InIterator __beg, _InIterator __end,
		   std::forward_iterator_tag)
      {
	// NB: Not required, but considered best practice.
	if (__gnu_cxx::__is_null_pointer(__beg) && __beg != __end)
  28:	48 8b 45 d0          	mov    -0x30(%rbp),%rax
  2c:	48 89 c7             	mov    %rax,%rdi
  2f:	e8 00 00 00 00       	call   34 <_ZNSt7__cxx1112basic_stringIcSt11char_traitsIcESaIcEE12_M_constructIPKcEEvT_S8_St20forward_iterator_tag+0x34>
  34:	84 c0                	test   %al,%al
  36:	74 11                	je     49 <_ZNSt7__cxx1112basic_stringIcSt11char_traitsIcESaIcEE12_M_constructIPKcEEvT_S8_St20forward_iterator_tag+0x49>
  38:	48 8b 45 d0          	mov    -0x30(%rbp),%rax
  3c:	48 3b 45 c8          	cmp    -0x38(%rbp),%rax
  40:	74 07                	je     49 <_ZNSt7__cxx1112basic_stringIcSt11char_traitsIcESaIcEE12_M_constructIPKcEEvT_S8_St20forward_iterator_tag+0x49>
  42:	b8 01 00 00 00       	mov    $0x1,%eax
  47:	eb 05                	jmp    4e <_ZNSt7__cxx1112basic_stringIcSt11char_traitsIcESaIcEE12_M_constructIPKcEEvT_S8_St20forward_iterator_tag+0x4e>
  49:	b8 00 00 00 00       	mov    $0x0,%eax
  4e:	84 c0                	test   %al,%al
  50:	74 0f                	je     61 <_ZNSt7__cxx1112basic_stringIcSt11char_traitsIcESaIcEE12_M_constructIPKcEEvT_S8_St20forward_iterator_tag+0x61>
	  std::__throw_logic_error(__N("basic_string::"
  52:	48 8d 05 00 00 00 00 	lea    0x0(%rip),%rax        # 59 <_ZNSt7__cxx1112basic_stringIcSt11char_traitsIcESaIcEE12_M_constructIPKcEEvT_S8_St20forward_iterator_tag+0x59>
  59:	48 89 c7             	mov    %rax,%rdi
  5c:	e8 00 00 00 00       	call   61 <_ZNSt7__cxx1112basic_stringIcSt11char_traitsIcESaIcEE12_M_constructIPKcEEvT_S8_St20forward_iterator_tag+0x61>
				       "_M_construct null not valid"));

	size_type __dnew = static_cast<size_type>(std::distance(__beg, __end));
  61:	48 8b 55 c8          	mov    -0x38(%rbp),%rdx
  65:	48 8b 45 d0          	mov    -0x30(%rbp),%rax
  69:	48 89 d6             	mov    %rdx,%rsi
  6c:	48 89 c7             	mov    %rax,%rdi
  6f:	e8 00 00 00 00       	call   74 <_ZNSt7__cxx1112basic_stringIcSt11char_traitsIcESaIcEE12_M_constructIPKcEEvT_S8_St20forward_iterator_tag+0x74>
  74:	48 89 45 e0          	mov    %rax,-0x20(%rbp)

	if (__dnew > size_type(_S_local_capacity))
  78:	48 8b 45 e0          	mov    -0x20(%rbp),%rax
  7c:	48 83 f8 0f          	cmp    $0xf,%rax
  80:	76 3d                	jbe    bf <_ZNSt7__cxx1112basic_stringIcSt11char_traitsIcESaIcEE12_M_constructIPKcEEvT_S8_St20forward_iterator_tag+0xbf>
	  {
	    _M_data(_M_create(__dnew, size_type(0)));
  82:	48 8d 4d e0          	lea    -0x20(%rbp),%rcx
  86:	48 8b 45 d8          	mov    -0x28(%rbp),%rax
  8a:	ba 00 00 00 00       	mov    $0x0,%edx
  8f:	48 89 ce             	mov    %rcx,%rsi
  92:	48 89 c7             	mov    %rax,%rdi
  95:	e8 00 00 00 00       	call   9a <_ZNSt7__cxx1112basic_stringIcSt11char_traitsIcESaIcEE12_M_constructIPKcEEvT_S8_St20forward_iterator_tag+0x9a>
  9a:	48 89 c2             	mov    %rax,%rdx
  9d:	48 8b 45 d8          	mov    -0x28(%rbp),%rax
  a1:	48 89 d6             	mov    %rdx,%rsi
  a4:	48 89 c7             	mov    %rax,%rdi
  a7:	e8 00 00 00 00       	call   ac <_ZNSt7__cxx1112basic_stringIcSt11char_traitsIcESaIcEE12_M_constructIPKcEEvT_S8_St20forward_iterator_tag+0xac>
	    _M_capacity(__dnew);
  ac:	48 8b 55 e0          	mov    -0x20(%rbp),%rdx
  b0:	48 8b 45 d8          	mov    -0x28(%rbp),%rax
  b4:	48 89 d6             	mov    %rdx,%rsi
  b7:	48 89 c7             	mov    %rax,%rdi
  ba:	e8 00 00 00 00       	call   bf <_ZNSt7__cxx1112basic_stringIcSt11char_traitsIcESaIcEE12_M_constructIPKcEEvT_S8_St20forward_iterator_tag+0xbf>
	  }

	// Check for out_of_range and length_error exceptions.
	__try
	  { this->_S_copy_chars(_M_data(), __beg, __end); }
  bf:	48 8b 45 d8          	mov    -0x28(%rbp),%rax
  c3:	48 89 c7             	mov    %rax,%rdi
  c6:	e8 00 00 00 00       	call   cb <_ZNSt7__cxx1112basic_stringIcSt11char_traitsIcESaIcEE12_M_constructIPKcEEvT_S8_St20forward_iterator_tag+0xcb>
  cb:	48 89 c1             	mov    %rax,%rcx
  ce:	48 8b 55 c8          	mov    -0x38(%rbp),%rdx
  d2:	48 8b 45 d0          	mov    -0x30(%rbp),%rax
  d6:	48 89 c6             	mov    %rax,%rsi
  d9:	48 89 cf             	mov    %rcx,%rdi
  dc:	e8 00 00 00 00       	call   e1 <_ZNSt7__cxx1112basic_stringIcSt11char_traitsIcESaIcEE12_M_constructIPKcEEvT_S8_St20forward_iterator_tag+0xe1>
	  {
	    _M_dispose();
	    __throw_exception_again;
	  }

	_M_set_length(__dnew);
  e1:	48 8b 55 e0          	mov    -0x20(%rbp),%rdx
  e5:	48 8b 45 d8          	mov    -0x28(%rbp),%rax
  e9:	48 89 d6             	mov    %rdx,%rsi
  ec:	48 89 c7             	mov    %rax,%rdi
  ef:	e8 00 00 00 00       	call   f4 <_ZNSt7__cxx1112basic_stringIcSt11char_traitsIcESaIcEE12_M_constructIPKcEEvT_S8_St20forward_iterator_tag+0xf4>
      }
  f4:	90                   	nop
  f5:	48 8b 45 e8          	mov    -0x18(%rbp),%rax
  f9:	64 48 2b 04 25 28 00 	sub    %fs:0x28,%rax
 100:	00 00 
 102:	74 3b                	je     13f <_ZNSt7__cxx1112basic_stringIcSt11char_traitsIcESaIcEE12_M_constructIPKcEEvT_S8_St20forward_iterator_tag+0x13f>
 104:	eb 34                	jmp    13a <_ZNSt7__cxx1112basic_stringIcSt11char_traitsIcESaIcEE12_M_constructIPKcEEvT_S8_St20forward_iterator_tag+0x13a>
 106:	f3 0f 1e fa          	endbr64 
	__catch(...)
 10a:	48 89 c7             	mov    %rax,%rdi
 10d:	e8 00 00 00 00       	call   112 <_ZNSt7__cxx1112basic_stringIcSt11char_traitsIcESaIcEE12_M_constructIPKcEEvT_S8_St20forward_iterator_tag+0x112>
	    _M_dispose();
 112:	48 8b 45 d8          	mov    -0x28(%rbp),%rax
 116:	48 89 c7             	mov    %rax,%rdi
 119:	e8 00 00 00 00       	call   11e <_ZNSt7__cxx1112basic_stringIcSt11char_traitsIcESaIcEE12_M_constructIPKcEEvT_S8_St20forward_iterator_tag+0x11e>
	    __throw_exception_again;
 11e:	e8 00 00 00 00       	call   123 <_ZNSt7__cxx1112basic_stringIcSt11char_traitsIcESaIcEE12_M_constructIPKcEEvT_S8_St20forward_iterator_tag+0x123>
 123:	f3 0f 1e fa          	endbr64 
	__catch(...)
 127:	48 89 c3             	mov    %rax,%rbx
 12a:	e8 00 00 00 00       	call   12f <_ZNSt7__cxx1112basic_stringIcSt11char_traitsIcESaIcEE12_M_constructIPKcEEvT_S8_St20forward_iterator_tag+0x12f>
 12f:	48 89 d8             	mov    %rbx,%rax
 132:	48 89 c7             	mov    %rax,%rdi
 135:	e8 00 00 00 00       	call   13a <_ZNSt7__cxx1112basic_stringIcSt11char_traitsIcESaIcEE12_M_constructIPKcEEvT_S8_St20forward_iterator_tag+0x13a>
      }
 13a:	e8 00 00 00 00       	call   13f <_ZNSt7__cxx1112basic_stringIcSt11char_traitsIcESaIcEE12_M_constructIPKcEEvT_S8_St20forward_iterator_tag+0x13f>
 13f:	48 8b 5d f8          	mov    -0x8(%rbp),%rbx
 143:	c9                   	leave  
 144:	c3                   	ret    

Disassembly of section .text._ZNSt23mersenne_twister_engineImLm32ELm624ELm397ELm31ELm2567483615ELm11ELm4294967295ELm7ELm2636928640ELm15ELm4022730752ELm18ELm1812433253EE4seedEm:

0000000000000000 <_ZNSt23mersenne_twister_engineImLm32ELm624ELm397ELm31ELm2567483615ELm11ELm4294967295ELm7ELm2636928640ELm15ELm4022730752ELm18ELm1812433253EE4seedEm>:
	   size_t __w, size_t __n, size_t __m, size_t __r,
	   _UIntType __a, size_t __u, _UIntType __d, size_t __s,
	   _UIntType __b, size_t __t, _UIntType __c, size_t __l,
	   _UIntType __f>
    void
    mersenne_twister_engine<_UIntType, __w, __n, __m, __r, __a, __u, __d,
   0:	f3 0f 1e fa          	endbr64 
   4:	55                   	push   %rbp
   5:	48 89 e5             	mov    %rsp,%rbp
   8:	48 83 ec 20          	sub    $0x20,%rsp
   c:	48 89 7d e8          	mov    %rdi,-0x18(%rbp)
  10:	48 89 75 e0          	mov    %rsi,-0x20(%rbp)
			    __s, __b, __t, __c, __l, __f>::
    seed(result_type __sd)
    {
      _M_x[0] = __detail::__mod<_UIntType,
	__detail::_Shift<_UIntType, __w>::__value>(__sd);
  14:	48 8b 45 e0          	mov    -0x20(%rbp),%rax
  18:	48 89 c7             	mov    %rax,%rdi
  1b:	e8 00 00 00 00       	call   20 <_ZNSt23mersenne_twister_engineImLm32ELm624ELm397ELm31ELm2567483615ELm11ELm4294967295ELm7ELm2636928640ELm15ELm4022730752ELm18ELm1812433253EE4seedEm+0x20>
      _M_x[0] = __detail::__mod<_UIntType,
  20:	48 8b 55 e8          	mov    -0x18(%rbp),%rdx
  24:	48 89 02             	mov    %rax,(%rdx)

      for (size_t __i = 1; __i < state_size; ++__i)
  27:	48 c7 45 f0 01 00 00 	movq   $0x1,-0x10(%rbp)
  2e:	00 
  2f:	eb 5c                	jmp    8d <_ZNSt23mersenne_twister_engineImLm32ELm624ELm397ELm31ELm2567483615ELm11ELm4294967295ELm7ELm2636928640ELm15ELm4022730752ELm18ELm1812433253EE4seedEm+0x8d>
	{
	  _UIntType __x = _M_x[__i - 1];
  31:	48 8b 45 f0          	mov    -0x10(%rbp),%rax
  35:	48 8d 50 ff          	lea    -0x1(%rax),%rdx
  39:	48 8b 45 e8          	mov    -0x18(%rbp),%rax
  3d:	48 8b 04 d0          	mov    (%rax,%rdx,8),%rax
  41:	48 89 45 f8          	mov    %rax,-0x8(%rbp)
	  __x ^= __x >> (__w - 2);
  45:	48 8b 45 f8          	mov    -0x8(%rbp),%rax
  49:	48 c1 e8 1e          	shr    $0x1e,%rax
  4d:	48 31 45 f8          	xor    %rax,-0x8(%rbp)
	  __x *= __f;
  51:	48 8b 45 f8          	mov    -0x8(%rbp),%rax
  55:	48 69 c0 65 89 07 6c 	imul   $0x6c078965,%rax,%rax
  5c:	48 89 45 f8          	mov    %rax,-0x8(%rbp)
	  __x += __detail::__mod<_UIntType, __n>(__i);
  60:	48 8b 45 f0          	mov    -0x10(%rbp),%rax
  64:	48 89 c7             	mov    %rax,%rdi
  67:	e8 00 00 00 00       	call   6c <_ZNSt23mersenne_twister_engineImLm32ELm624ELm397ELm31ELm2567483615ELm11ELm4294967295ELm7ELm2636928640ELm15ELm4022730752ELm18ELm1812433253EE4seedEm+0x6c>
  6c:	48 01 45 f8          	add    %rax,-0x8(%rbp)
	  _M_x[__i] = __detail::__mod<_UIntType,
	    __detail::_Shift<_UIntType, __w>::__value>(__x);
  70:	48 8b 45 f8          	mov    -0x8(%rbp),%rax
  74:	48 89 c7             	mov    %rax,%rdi
  77:	e8 00 00 00 00       	call   7c <_ZNSt23mersenne_twister_engineImLm32ELm624ELm397ELm31ELm2567483615ELm11ELm4294967295ELm7ELm2636928640ELm15ELm4022730752ELm18ELm1812433253EE4seedEm+0x7c>
	  _M_x[__i] = __detail::__mod<_UIntType,
  7c:	48 8b 55 e8          	mov    -0x18(%rbp),%rdx
  80:	48 8b 4d f0          	mov    -0x10(%rbp),%rcx
  84:	48 89 04 ca          	mov    %rax,(%rdx,%rcx,8)
      for (size_t __i = 1; __i < state_size; ++__i)
  88:	48 83 45 f0 01       	addq   $0x1,-0x10(%rbp)
  8d:	48 81 7d f0 6f 02 00 	cmpq   $0x26f,-0x10(%rbp)
  94:	00 
  95:	76 9a                	jbe    31 <_ZNSt23mersenne_twister_engineImLm32ELm624ELm397ELm31ELm2567483615ELm11ELm4294967295ELm7ELm2636928640ELm15ELm4022730752ELm18ELm1812433253EE4seedEm+0x31>
	}
      _M_p = state_size;
  97:	48 8b 45 e8          	mov    -0x18(%rbp),%rax
  9b:	48 c7 80 80 13 00 00 	movq   $0x270,0x1380(%rax)
  a2:	70 02 00 00 
    }
  a6:	90                   	nop
  a7:	c9                   	leave  
  a8:	c3                   	ret    

Disassembly of section .text._ZNSt24uniform_int_distributionIiE10param_typeC2Eii:

0000000000000000 <_ZNSt24uniform_int_distributionIiE10param_typeC1Eii>:
	param_type(_IntType __a,
   0:	f3 0f 1e fa          	endbr64 
   4:	55                   	push   %rbp
   5:	48 89 e5             	mov    %rsp,%rbp
   8:	48 89 7d f8          	mov    %rdi,-0x8(%rbp)
   c:	89 75 f4             	mov    %esi,-0xc(%rbp)
   f:	89 55 f0             	mov    %edx,-0x10(%rbp)
	: _M_a(__a), _M_b(__b)
  12:	48 8b 45 f8          	mov    -0x8(%rbp),%rax
  16:	8b 55 f4             	mov    -0xc(%rbp),%edx
  19:	89 10                	mov    %edx,(%rax)
  1b:	48 8b 45 f8          	mov    -0x8(%rbp),%rax
  1f:	8b 55 f0             	mov    -0x10(%rbp),%edx
  22:	89 50 04             	mov    %edx,0x4(%rax)
	}
  25:	90                   	nop
  26:	5d                   	pop    %rbp
  27:	c3                   	ret    

Disassembly of section .text._ZNSt24uniform_int_distributionIiEclISt23mersenne_twister_engineImLm32ELm624ELm397ELm31ELm2567483615ELm11ELm4294967295ELm7ELm2636928640ELm15ELm4022730752ELm18ELm1812433253EEEEiRT_RKNS0_10param_typeE:

0000000000000000 <_ZNSt24uniform_int_distributionIiEclISt23mersenne_twister_engineImLm32ELm624ELm397ELm31ELm2567483615ELm11ELm4294967295ELm7ELm2636928640ELm15ELm4022730752ELm18ELm1812433253EEEEiRT_RKNS0_10param_typeE>:
    };

  template<typename _IntType>
    template<typename _UniformRandomBitGenerator>
      typename uniform_int_distribution<_IntType>::result_type
      uniform_int_distribution<_IntType>::
   0:	f3 0f 1e fa          	endbr64 
   4:	55                   	push   %rbp
   5:	48 89 e5             	mov    %rsp,%rbp
   8:	53                   	push   %rbx
   9:	48 81 ec 88 00 00 00 	sub    $0x88,%rsp
  10:	48 89 7d 88          	mov    %rdi,-0x78(%rbp)
  14:	48 89 75 80          	mov    %rsi,-0x80(%rbp)
  18:	48 89 95 78 ff ff ff 	mov    %rdx,-0x88(%rbp)
  1f:	64 48 8b 04 25 28 00 	mov    %fs:0x28,%rax
  26:	00 00 
  28:	48 89 45 e8          	mov    %rax,-0x18(%rbp)
  2c:	31 c0                	xor    %eax,%eax
      {
	typedef typename _UniformRandomBitGenerator::result_type _Gresult_type;
	typedef typename make_unsigned<result_type>::type __utype;
	typedef typename common_type<_Gresult_type, __utype>::type __uctype;

	constexpr __uctype __urngmin = _UniformRandomBitGenerator::min();
  2e:	48 c7 45 a8 00 00 00 	movq   $0x0,-0x58(%rbp)
  35:	00 
	constexpr __uctype __urngmax = _UniformRandomBitGenerator::max();
  36:	b8 ff ff ff ff       	mov    $0xffffffff,%eax
  3b:	48 89 45 b0          	mov    %rax,-0x50(%rbp)
	static_assert( __urngmin < __urngmax,
	    "Uniform random bit generator must define min() < max()");
	constexpr __uctype __urngrange = __urngmax - __urngmin;
  3f:	48 89 45 b8          	mov    %rax,-0x48(%rbp)

	const __uctype __urange
	  = __uctype(__param.b()) - __uctype(__param.a());
  43:	48 8b 85 78 ff ff ff 	mov    -0x88(%rbp),%rax
  4a:	48 89 c7             	mov    %rax,%rdi
  4d:	e8 00 00 00 00       	call   52 <_ZNSt24uniform_int_distributionIiEclISt23mersenne_twister_engineImLm32ELm624ELm397ELm31ELm2567483615ELm11ELm4294967295ELm7ELm2636928640ELm15ELm4022730752ELm18ELm1812433253EEEEiRT_RKNS0_10param_typeE+0x52>
  52:	48 63 d8             	movslq %eax,%rbx
  55:	48 8b 85 78 ff ff ff 	mov    -0x88(%rbp),%rax
  5c:	48 89 c7             	mov    %rax,%rdi
  5f:	e8 00 00 00 00       	call   64 <_ZNSt24uniform_int_distributionIiEclISt23mersenne_twister_engineImLm32ELm624ELm397ELm31ELm2567483615ELm11ELm4294967295ELm7ELm2636928640ELm15ELm4022730752ELm18ELm1812433253EEEEiRT_RKNS0_10param_typeE+0x64>
  64:	48 63 d0             	movslq %eax,%rdx
	const __uctype __urange
  67:	48 89 d8             	mov    %rbx,%rax
  6a:	48 29 d0             	sub    %rdx,%rax
  6d:	48 89 45 c0          	mov    %rax,-0x40(%rbp)

	__uctype __ret;
	if (__urngrange > __urange)
  71:	b8 fe ff ff ff       	mov    $0xfffffffe,%eax
  76:	48 39 45 c0          	cmp    %rax,-0x40(%rbp)
  7a:	77 2f                	ja     ab <_ZNSt24uniform_int_distributionIiEclISt23mersenne_twister_engineImLm32ELm624ELm397ELm31ELm2567483615ELm11ELm4294967295ELm7ELm2636928640ELm15ELm4022730752ELm18ELm1812433253EEEEiRT_RKNS0_10param_typeE+0xab>
	  {
	    // downscaling

	    const __uctype __uerange = __urange + 1; // __urange can be zero
  7c:	48 8b 45 c0          	mov    -0x40(%rbp),%rax
  80:	48 83 c0 01          	add    $0x1,%rax
  84:	48 89 45 d8          	mov    %rax,-0x28(%rbp)
#endif
	    if _GLIBCXX17_CONSTEXPR (__urngrange == __UINT32_MAX__)
	      {
		// __urng produces values that use exactly 32-bits,
		// so use 64-bit integers to downscale to desired range.
		__UINT32_TYPE__ __u32erange = __uerange;
  88:	48 8b 45 d8          	mov    -0x28(%rbp),%rax
  8c:	89 45 9c             	mov    %eax,-0x64(%rbp)
		__ret = _S_nd<__UINT64_TYPE__>(__urng, __u32erange);
  8f:	8b 55 9c             	mov    -0x64(%rbp),%edx
  92:	48 8b 45 80          	mov    -0x80(%rbp),%rax
  96:	89 d6                	mov    %edx,%esi
  98:	48 89 c7             	mov    %rax,%rdi
  9b:	e8 00 00 00 00       	call   a0 <_ZNSt24uniform_int_distributionIiEclISt23mersenne_twister_engineImLm32ELm624ELm397ELm31ELm2567483615ELm11ELm4294967295ELm7ELm2636928640ELm15ELm4022730752ELm18ELm1812433253EEEEiRT_RKNS0_10param_typeE+0xa0>
  a0:	89 c0                	mov    %eax,%eax
  a2:	48 89 45 a0          	mov    %rax,-0x60(%rbp)
  a6:	e9 92 00 00 00       	jmp    13d <_ZNSt24uniform_int_distributionIiEclISt23mersenne_twister_engineImLm32ELm624ELm397ELm31ELm2567483615ELm11ELm4294967295ELm7ELm2636928640ELm15ELm4022730752ELm18ELm1812433253EEEEiRT_RKNS0_10param_typeE+0x13d>
		  __ret = __uctype(__urng()) - __urngmin;
		while (__ret >= __past);
		__ret /= __scaling;
	      }
	  }
	else if (__urngrange < __urange)
  ab:	b8 ff ff ff ff       	mov    $0xffffffff,%eax
  b0:	48 39 45 c0          	cmp    %rax,-0x40(%rbp)
  b4:	76 77                	jbe    12d <_ZNSt24uniform_int_distributionIiEclISt23mersenne_twister_engineImLm32ELm624ELm397ELm31ELm2567483615ELm11ELm4294967295ELm7ELm2636928640ELm15ELm4022730752ELm18ELm1812433253EEEEiRT_RKNS0_10param_typeE+0x12d>
	      low in [0, urngrange].
	    */
	    __uctype __tmp; // wraparound control
	    do
	      {
		const __uctype __uerngrange = __urngrange + 1;
  b6:	48 b8 00 00 00 00 01 	movabs $0x100000000,%rax
  bd:	00 00 00 
  c0:	48 89 45 c8          	mov    %rax,-0x38(%rbp)
		__tmp = (__uerngrange * operator()
			 (__urng, param_type(0, __urange / __uerngrange)));
  c4:	48 8b 45 c0          	mov    -0x40(%rbp),%rax
  c8:	48 c1 e8 20          	shr    $0x20,%rax
  cc:	89 c2                	mov    %eax,%edx
  ce:	48 8d 45 e0          	lea    -0x20(%rbp),%rax
  d2:	be 00 00 00 00       	mov    $0x0,%esi
  d7:	48 89 c7             	mov    %rax,%rdi
  da:	e8 00 00 00 00       	call   df <_ZNSt24uniform_int_distributionIiEclISt23mersenne_twister_engineImLm32ELm624ELm397ELm31ELm2567483615ELm11ELm4294967295ELm7ELm2636928640ELm15ELm4022730752ELm18ELm1812433253EEEEiRT_RKNS0_10param_typeE+0xdf>
  df:	48 8d 55 e0          	lea    -0x20(%rbp),%rdx
  e3:	48 8b 4d 80          	mov    -0x80(%rbp),%rcx
  e7:	48 8b 45 88          	mov    -0x78(%rbp),%rax
  eb:	48 89 ce             	mov    %rcx,%rsi
  ee:	48 89 c7             	mov    %rax,%rdi
  f1:	e8 00 00 00 00       	call   f6 <_ZNSt24uniform_int_distributionIiEclISt23mersenne_twister_engineImLm32ELm624ELm397ELm31ELm2567483615ELm11ELm4294967295ELm7ELm2636928640ELm15ELm4022730752ELm18ELm1812433253EEEEiRT_RKNS0_10param_typeE+0xf6>
  f6:	48 98                	cltq   
		__tmp = (__uerngrange * operator()
  f8:	48 c1 e0 20          	shl    $0x20,%rax
  fc:	48 89 45 d0          	mov    %rax,-0x30(%rbp)
		__ret = __tmp + (__uctype(__urng()) - __urngmin);
 100:	48 8b 45 80          	mov    -0x80(%rbp),%rax
 104:	48 89 c7             	mov    %rax,%rdi
 107:	e8 00 00 00 00       	call   10c <_ZNSt24uniform_int_distributionIiEclISt23mersenne_twister_engineImLm32ELm624ELm397ELm31ELm2567483615ELm11ELm4294967295ELm7ELm2636928640ELm15ELm4022730752ELm18ELm1812433253EEEEiRT_RKNS0_10param_typeE+0x10c>
 10c:	48 8b 55 d0          	mov    -0x30(%rbp),%rdx
 110:	48 01 d0             	add    %rdx,%rax
 113:	48 89 45 a0          	mov    %rax,-0x60(%rbp)
	      }
	    while (__ret > __urange || __ret < __tmp);
 117:	48 8b 45 a0          	mov    -0x60(%rbp),%rax
 11b:	48 3b 45 c0          	cmp    -0x40(%rbp),%rax
 11f:	77 95                	ja     b6 <_ZNSt24uniform_int_distributionIiEclISt23mersenne_twister_engineImLm32ELm624ELm397ELm31ELm2567483615ELm11ELm4294967295ELm7ELm2636928640ELm15ELm4022730752ELm18ELm1812433253EEEEiRT_RKNS0_10param_typeE+0xb6>
 121:	48 8b 45 a0          	mov    -0x60(%rbp),%rax
 125:	48 3b 45 d0          	cmp    -0x30(%rbp),%rax
 129:	72 8b                	jb     b6 <_ZNSt24uniform_int_distributionIiEclISt23mersenne_twister_engineImLm32ELm624ELm397ELm31ELm2567483615ELm11ELm4294967295ELm7ELm2636928640ELm15ELm4022730752ELm18ELm1812433253EEEEiRT_RKNS0_10param_typeE+0xb6>
 12b:	eb 10                	jmp    13d <_ZNSt24uniform_int_distributionIiEclISt23mersenne_twister_engineImLm32ELm624ELm397ELm31ELm2567483615ELm11ELm4294967295ELm7ELm2636928640ELm15ELm4022730752ELm18ELm1812433253EEEEiRT_RKNS0_10param_typeE+0x13d>
	  }
	else
	  __ret = __uctype(__urng()) - __urngmin;
 12d:	48 8b 45 80          	mov    -0x80(%rbp),%rax
 131:	48 89 c7             	mov    %rax,%rdi
 134:	e8 00 00 00 00       	call   139 <_ZNSt24uniform_int_distributionIiEclISt23mersenne_twister_engineImLm32ELm624ELm397ELm31ELm2567483615ELm11ELm4294967295ELm7ELm2636928640ELm15ELm4022730752ELm18ELm1812433253EEEEiRT_RKNS0_10param_typeE+0x139>
 139:	48 89 45 a0          	mov    %rax,-0x60(%rbp)

	return __ret + __param.a();
 13d:	48 8b 85 78 ff ff ff 	mov    -0x88(%rbp),%rax
 144:	48 89 c7             	mov    %rax,%rdi
 147:	e8 00 00 00 00       	call   14c <_ZNSt24uniform_int_distributionIiEclISt23mersenne_twister_engineImLm32ELm624ELm397ELm31ELm2567483615ELm11ELm4294967295ELm7ELm2636928640ELm15ELm4022730752ELm18ELm1812433253EEEEiRT_RKNS0_10param_typeE+0x14c>
 14c:	89 c2                	mov    %eax,%edx
 14e:	48 8b 45 a0          	mov    -0x60(%rbp),%rax
 152:	01 d0                	add    %edx,%eax
      }
 154:	48 8b 55 e8          	mov    -0x18(%rbp),%rdx
 158:	64 48 2b 14 25 28 00 	sub    %fs:0x28,%rdx
 15f:	00 00 
 161:	74 05                	je     168 <_ZNSt24uniform_int_distributionIiEclISt23mersenne_twister_engineImLm32ELm624ELm397ELm31ELm2567483615ELm11ELm4294967295ELm7ELm2636928640ELm15ELm4022730752ELm18ELm1812433253EEEEiRT_RKNS0_10param_typeE+0x168>
 163:	e8 00 00 00 00       	call   168 <_ZNSt24uniform_int_distributionIiEclISt23mersenne_twister_engineImLm32ELm624ELm397ELm31ELm2567483615ELm11ELm4294967295ELm7ELm2636928640ELm15ELm4022730752ELm18ELm1812433253EEEEiRT_RKNS0_10param_typeE+0x168>
 168:	48 8b 5d f8          	mov    -0x8(%rbp),%rbx
 16c:	c9                   	leave  
 16d:	c3                   	ret    

Disassembly of section .text._ZNKSt6vectorIiSaIiEE5beginEv:

0000000000000000 <_ZNKSt6vectorIiSaIiEE5beginEv>:
      begin() const _GLIBCXX_NOEXCEPT
   0:	f3 0f 1e fa          	endbr64 
   4:	55                   	push   %rbp
   5:	48 89 e5             	mov    %rsp,%rbp
   8:	48 83 ec 20          	sub    $0x20,%rsp
   c:	48 89 7d e8          	mov    %rdi,-0x18(%rbp)
  10:	64 48 8b 04 25 28 00 	mov    %fs:0x28,%rax
  17:	00 00 
  19:	48 89 45 f8          	mov    %rax,-0x8(%rbp)
  1d:	31 c0                	xor    %eax,%eax
      { return const_iterator(this->_M_impl._M_start); }
  1f:	48 8b 55 e8          	mov    -0x18(%rbp),%rdx
  23:	48 8d 45 f0          	lea    -0x10(%rbp),%rax
  27:	48 89 d6             	mov    %rdx,%rsi
  2a:	48 89 c7             	mov    %rax,%rdi
  2d:	e8 00 00 00 00       	call   32 <_ZNKSt6vectorIiSaIiEE5beginEv+0x32>
  32:	48 8b 45 f0          	mov    -0x10(%rbp),%rax
  36:	48 8b 55 f8          	mov    -0x8(%rbp),%rdx
  3a:	64 48 2b 14 25 28 00 	sub    %fs:0x28,%rdx
  41:	00 00 
  43:	74 05                	je     4a <_ZNKSt6vectorIiSaIiEE5beginEv+0x4a>
  45:	e8 00 00 00 00       	call   4a <_ZNKSt6vectorIiSaIiEE5beginEv+0x4a>
  4a:	c9                   	leave  
  4b:	c3                   	ret    

Disassembly of section .text._ZNKSt6vectorIiSaIiEE3endEv:

0000000000000000 <_ZNKSt6vectorIiSaIiEE3endEv>:
      end() const _GLIBCXX_NOEXCEPT
   0:	f3 0f 1e fa          	endbr64 
   4:	55                   	push   %rbp
   5:	48 89 e5             	mov    %rsp,%rbp
   8:	48 83 ec 20          	sub    $0x20,%rsp
   c:	48 89 7d e8          	mov    %rdi,-0x18(%rbp)
  10:	64 48 8b 04 25 28 00 	mov    %fs:0x28,%rax
  17:	00 00 
  19:	48 89 45 f8          	mov    %rax,-0x8(%rbp)
  1d:	31 c0                	xor    %eax,%eax
      { return const_iterator(this->_M_impl._M_finish); }
  1f:	48 8b 45 e8          	mov    -0x18(%rbp),%rax
  23:	48 8d 50 08          	lea    0x8(%rax),%rdx
  27:	48 8d 45 f0          	lea    -0x10(%rbp),%rax
  2b:	48 89 d6             	mov    %rdx,%rsi
  2e:	48 89 c7             	mov    %rax,%rdi
  31:	e8 00 00 00 00       	call   36 <_ZNKSt6vectorIiSaIiEE3endEv+0x36>
  36:	48 8b 45 f0          	mov    -0x10(%rbp),%rax
  3a:	48 8b 55 f8          	mov    -0x8(%rbp),%rdx
  3e:	64 48 2b 14 25 28 00 	sub    %fs:0x28,%rdx
  45:	00 00 
  47:	74 05                	je     4e <_ZNKSt6vectorIiSaIiEE3endEv+0x4e>
  49:	e8 00 00 00 00       	call   4e <_ZNKSt6vectorIiSaIiEE3endEv+0x4e>
  4e:	c9                   	leave  
  4f:	c3                   	ret    

Disassembly of section .text._ZN9__gnu_cxxeqIPKiSt6vectorIiSaIiEEEEbRKNS_17__normal_iteratorIT_T0_EESB_:

0000000000000000 <_ZN9__gnu_cxxeqIPKiSt6vectorIiSaIiEEEEbRKNS_17__normal_iteratorIT_T0_EESB_>:
    { return __lhs.base() == __rhs.base(); }

  template<typename _Iterator, typename _Container>
    _GLIBCXX20_CONSTEXPR
    inline bool
    operator==(const __normal_iterator<_Iterator, _Container>& __lhs,
   0:	f3 0f 1e fa          	endbr64 
   4:	55                   	push   %rbp
   5:	48 89 e5             	mov    %rsp,%rbp
   8:	53                   	push   %rbx
   9:	48 83 ec 18          	sub    $0x18,%rsp
   d:	48 89 7d e8          	mov    %rdi,-0x18(%rbp)
  11:	48 89 75 e0          	mov    %rsi,-0x20(%rbp)
	       const __normal_iterator<_Iterator, _Container>& __rhs)
    _GLIBCXX_NOEXCEPT
    { return __lhs.base() == __rhs.base(); }
  15:	48 8b 45 e8          	mov    -0x18(%rbp),%rax
  19:	48 89 c7             	mov    %rax,%rdi
  1c:	e8 00 00 00 00       	call   21 <_ZN9__gnu_cxxeqIPKiSt6vectorIiSaIiEEEEbRKNS_17__normal_iteratorIT_T0_EESB_+0x21>
  21:	48 8b 18             	mov    (%rax),%rbx
  24:	48 8b 45 e0          	mov    -0x20(%rbp),%rax
  28:	48 89 c7             	mov    %rax,%rdi
  2b:	e8 00 00 00 00       	call   30 <_ZN9__gnu_cxxeqIPKiSt6vectorIiSaIiEEEEbRKNS_17__normal_iteratorIT_T0_EESB_+0x30>
  30:	48 8b 00             	mov    (%rax),%rax
  33:	48 39 c3             	cmp    %rax,%rbx
  36:	0f 94 c0             	sete   %al
  39:	48 8b 5d f8          	mov    -0x8(%rbp),%rbx
  3d:	c9                   	leave  
  3e:	c3                   	ret    

Disassembly of section .text._ZN9__gnu_cxx13new_allocatorIiEC2Ev:

0000000000000000 <_ZN9__gnu_cxx13new_allocatorIiEC1Ev>:
      // 2103. propagate_on_container_move_assignment
      typedef std::true_type propagate_on_container_move_assignment;
#endif

      _GLIBCXX20_CONSTEXPR
      new_allocator() _GLIBCXX_USE_NOEXCEPT { }
   0:	f3 0f 1e fa          	endbr64 
   4:	55                   	push   %rbp
   5:	48 89 e5             	mov    %rsp,%rbp
   8:	48 89 7d f8          	mov    %rdi,-0x8(%rbp)
   c:	90                   	nop
   d:	5d                   	pop    %rbp
   e:	c3                   	ret    

Disassembly of section .text._ZN9__gnu_cxx13new_allocatorIiED2Ev:

0000000000000000 <_ZN9__gnu_cxx13new_allocatorIiED1Ev>:
      template<typename _Tp1>
	_GLIBCXX20_CONSTEXPR
	new_allocator(const new_allocator<_Tp1>&) _GLIBCXX_USE_NOEXCEPT { }

#if __cplusplus <= 201703L
      ~new_allocator() _GLIBCXX_USE_NOEXCEPT { }
   0:	f3 0f 1e fa          	endbr64 
   4:	55                   	push   %rbp
   5:	48 89 e5             	mov    %rsp,%rbp
   8:	48 89 7d f8          	mov    %rdi,-0x8(%rbp)
   c:	90                   	nop
   d:	5d                   	pop    %rbp
   e:	c3                   	ret    

Disassembly of section .text._ZNSt6vectorIiSaIiEE17_S_check_init_lenEmRKS0_:

0000000000000000 <_ZNSt6vectorIiSaIiEE17_S_check_init_lenEmRKS0_>:
	return (__len < size() || __len > max_size()) ? max_size() : __len;
      }

      // Called by constructors to check initial size.
      static size_type
      _S_check_init_len(size_type __n, const allocator_type& __a)
   0:	f3 0f 1e fa          	endbr64 
   4:	55                   	push   %rbp
   5:	48 89 e5             	mov    %rsp,%rbp
   8:	53                   	push   %rbx
   9:	48 83 ec 28          	sub    $0x28,%rsp
   d:	48 89 7d d8          	mov    %rdi,-0x28(%rbp)
  11:	48 89 75 d0          	mov    %rsi,-0x30(%rbp)
  15:	64 48 8b 04 25 28 00 	mov    %fs:0x28,%rax
  1c:	00 00 
  1e:	48 89 45 e8          	mov    %rax,-0x18(%rbp)
  22:	31 c0                	xor    %eax,%eax
      {
	if (__n > _S_max_size(_Tp_alloc_type(__a)))
  24:	48 8b 55 d0          	mov    -0x30(%rbp),%rdx
  28:	48 8d 45 e7          	lea    -0x19(%rbp),%rax
  2c:	48 89 d6             	mov    %rdx,%rsi
  2f:	48 89 c7             	mov    %rax,%rdi
  32:	e8 00 00 00 00       	call   37 <_ZNSt6vectorIiSaIiEE17_S_check_init_lenEmRKS0_+0x37>
  37:	48 8d 45 e7          	lea    -0x19(%rbp),%rax
  3b:	48 89 c7             	mov    %rax,%rdi
  3e:	e8 00 00 00 00       	call   43 <_ZNSt6vectorIiSaIiEE17_S_check_init_lenEmRKS0_+0x43>
  43:	48 39 45 d8          	cmp    %rax,-0x28(%rbp)
  47:	0f 97 c3             	seta   %bl
  4a:	48 8d 45 e7          	lea    -0x19(%rbp),%rax
  4e:	48 89 c7             	mov    %rax,%rdi
  51:	e8 00 00 00 00       	call   56 <_ZNSt6vectorIiSaIiEE17_S_check_init_lenEmRKS0_+0x56>
  56:	84 db                	test   %bl,%bl
  58:	74 0f                	je     69 <_ZNSt6vectorIiSaIiEE17_S_check_init_lenEmRKS0_+0x69>
	  __throw_length_error(
  5a:	48 8d 05 00 00 00 00 	lea    0x0(%rip),%rax        # 61 <_ZNSt6vectorIiSaIiEE17_S_check_init_lenEmRKS0_+0x61>
  61:	48 89 c7             	mov    %rax,%rdi
  64:	e8 00 00 00 00       	call   69 <_ZNSt6vectorIiSaIiEE17_S_check_init_lenEmRKS0_+0x69>
	      __N("cannot create std::vector larger than max_size()"));
	return __n;
  69:	48 8b 45 d8          	mov    -0x28(%rbp),%rax
      }
  6d:	48 8b 55 e8          	mov    -0x18(%rbp),%rdx
  71:	64 48 2b 14 25 28 00 	sub    %fs:0x28,%rdx
  78:	00 00 
  7a:	74 05                	je     81 <_ZNSt6vectorIiSaIiEE17_S_check_init_lenEmRKS0_+0x81>
  7c:	e8 00 00 00 00       	call   81 <_ZNSt6vectorIiSaIiEE17_S_check_init_lenEmRKS0_+0x81>
  81:	48 8b 5d f8          	mov    -0x8(%rbp),%rbx
  85:	c9                   	leave  
  86:	c3                   	ret    

Disassembly of section .text._ZNSt12_Vector_baseIiSaIiEEC2EmRKS0_:

0000000000000000 <_ZNSt12_Vector_baseIiSaIiEEC1EmRKS0_>:
      _Vector_base(size_t __n, const allocator_type& __a)
   0:	f3 0f 1e fa          	endbr64 
   4:	55                   	push   %rbp
   5:	48 89 e5             	mov    %rsp,%rbp
   8:	53                   	push   %rbx
   9:	48 83 ec 28          	sub    $0x28,%rsp
   d:	48 89 7d e8          	mov    %rdi,-0x18(%rbp)
  11:	48 89 75 e0          	mov    %rsi,-0x20(%rbp)
  15:	48 89 55 d8          	mov    %rdx,-0x28(%rbp)
      : _M_impl(__a)
  19:	48 8b 45 e8          	mov    -0x18(%rbp),%rax
  1d:	48 8b 55 d8          	mov    -0x28(%rbp),%rdx
  21:	48 89 d6             	mov    %rdx,%rsi
  24:	48 89 c7             	mov    %rax,%rdi
  27:	e8 00 00 00 00       	call   2c <_ZNSt12_Vector_baseIiSaIiEEC1EmRKS0_+0x2c>
      { _M_create_storage(__n); }
  2c:	48 8b 55 e0          	mov    -0x20(%rbp),%rdx
  30:	48 8b 45 e8          	mov    -0x18(%rbp),%rax
  34:	48 89 d6             	mov    %rdx,%rsi
  37:	48 89 c7             	mov    %rax,%rdi
  3a:	e8 00 00 00 00       	call   3f <_ZNSt12_Vector_baseIiSaIiEEC1EmRKS0_+0x3f>
  3f:	eb 1e                	jmp    5f <_ZNSt12_Vector_baseIiSaIiEEC1EmRKS0_+0x5f>
  41:	f3 0f 1e fa          	endbr64 
  45:	48 89 c3             	mov    %rax,%rbx
  48:	48 8b 45 e8          	mov    -0x18(%rbp),%rax
  4c:	48 89 c7             	mov    %rax,%rdi
  4f:	e8 00 00 00 00       	call   54 <_ZNSt12_Vector_baseIiSaIiEEC1EmRKS0_+0x54>
  54:	48 89 d8             	mov    %rbx,%rax
  57:	48 89 c7             	mov    %rax,%rdi
  5a:	e8 00 00 00 00       	call   5f <_ZNSt12_Vector_baseIiSaIiEEC1EmRKS0_+0x5f>
  5f:	48 8b 5d f8          	mov    -0x8(%rbp),%rbx
  63:	c9                   	leave  
  64:	c3                   	ret    

Disassembly of section .text._ZNSt6vectorIiSaIiEE21_M_default_initializeEm:

0000000000000000 <_ZNSt6vectorIiSaIiEE21_M_default_initializeEm>:
      _M_default_initialize(size_type __n)
   0:	f3 0f 1e fa          	endbr64 
   4:	55                   	push   %rbp
   5:	48 89 e5             	mov    %rsp,%rbp
   8:	48 83 ec 10          	sub    $0x10,%rsp
   c:	48 89 7d f8          	mov    %rdi,-0x8(%rbp)
  10:	48 89 75 f0          	mov    %rsi,-0x10(%rbp)
					   _M_get_Tp_allocator());
  14:	48 8b 45 f8          	mov    -0x8(%rbp),%rax
  18:	48 89 c7             	mov    %rax,%rdi
  1b:	e8 00 00 00 00       	call   20 <_ZNSt6vectorIiSaIiEE21_M_default_initializeEm+0x20>
  20:	48 89 c2             	mov    %rax,%rdx
	  std::__uninitialized_default_n_a(this->_M_impl._M_start, __n,
  23:	48 8b 45 f8          	mov    -0x8(%rbp),%rax
  27:	48 8b 00             	mov    (%rax),%rax
  2a:	48 8b 4d f0          	mov    -0x10(%rbp),%rcx
  2e:	48 89 ce             	mov    %rcx,%rsi
  31:	48 89 c7             	mov    %rax,%rdi
  34:	e8 00 00 00 00       	call   39 <_ZNSt6vectorIiSaIiEE21_M_default_initializeEm+0x39>
	this->_M_impl._M_finish =
  39:	48 8b 55 f8          	mov    -0x8(%rbp),%rdx
  3d:	48 89 42 08          	mov    %rax,0x8(%rdx)
      }
  41:	90                   	nop
  42:	c9                   	leave  
  43:	c3                   	ret    

Disassembly of section .text._ZNSt12_Vector_baseIiSaIiEE19_M_get_Tp_allocatorEv:

0000000000000000 <_ZNSt12_Vector_baseIiSaIiEE19_M_get_Tp_allocatorEv>:
      _M_get_Tp_allocator() _GLIBCXX_NOEXCEPT
   0:	f3 0f 1e fa          	endbr64 
   4:	55                   	push   %rbp
   5:	48 89 e5             	mov    %rsp,%rbp
   8:	48 89 7d f8          	mov    %rdi,-0x8(%rbp)
      { return this->_M_impl; }
   c:	48 8b 45 f8          	mov    -0x8(%rbp),%rax
  10:	5d                   	pop    %rbp
  11:	c3                   	ret    

Disassembly of section .text._ZNSaIiEC2ERKS_:

0000000000000000 <_ZNSaIiEC1ERKS_>:
      allocator(const allocator& __a) _GLIBCXX_NOTHROW
   0:	f3 0f 1e fa          	endbr64 
   4:	55                   	push   %rbp
   5:	48 89 e5             	mov    %rsp,%rbp
   8:	48 83 ec 10          	sub    $0x10,%rsp
   c:	48 89 7d f8          	mov    %rdi,-0x8(%rbp)
  10:	48 89 75 f0          	mov    %rsi,-0x10(%rbp)
      : __allocator_base<_Tp>(__a) { }
  14:	48 8b 55 f0          	mov    -0x10(%rbp),%rdx
  18:	48 8b 45 f8          	mov    -0x8(%rbp),%rax
  1c:	48 89 d6             	mov    %rdx,%rsi
  1f:	48 89 c7             	mov    %rax,%rdi
  22:	e8 00 00 00 00       	call   27 <_ZNSaIiEC1ERKS_+0x27>
  27:	90                   	nop
  28:	c9                   	leave  
  29:	c3                   	ret    

Disassembly of section .text._ZNSt12_Vector_baseIiSaIiEE13_M_deallocateEPim:

0000000000000000 <_ZNSt12_Vector_baseIiSaIiEE13_M_deallocateEPim>:
      _M_deallocate(pointer __p, size_t __n)
   0:	f3 0f 1e fa          	endbr64 
   4:	55                   	push   %rbp
   5:	48 89 e5             	mov    %rsp,%rbp
   8:	48 83 ec 20          	sub    $0x20,%rsp
   c:	48 89 7d f8          	mov    %rdi,-0x8(%rbp)
  10:	48 89 75 f0          	mov    %rsi,-0x10(%rbp)
  14:	48 89 55 e8          	mov    %rdx,-0x18(%rbp)
	if (__p)
  18:	48 83 7d f0 00       	cmpq   $0x0,-0x10(%rbp)
  1d:	74 17                	je     36 <_ZNSt12_Vector_baseIiSaIiEE13_M_deallocateEPim+0x36>
	  _Tr::deallocate(_M_impl, __p, __n);
  1f:	48 8b 45 f8          	mov    -0x8(%rbp),%rax
  23:	48 8b 55 e8          	mov    -0x18(%rbp),%rdx
  27:	48 8b 4d f0          	mov    -0x10(%rbp),%rcx
  2b:	48 89 ce             	mov    %rcx,%rsi
  2e:	48 89 c7             	mov    %rax,%rdi
  31:	e8 00 00 00 00       	call   36 <_ZNSt12_Vector_baseIiSaIiEE13_M_deallocateEPim+0x36>
      }
  36:	90                   	nop
  37:	c9                   	leave  
  38:	c3                   	ret    

Disassembly of section .text._ZN9__gnu_cxx17__is_null_pointerIKcEEbPT_:

0000000000000000 <_ZN9__gnu_cxx17__is_null_pointerIKcEEbPT_>:


  // For use in string and vstring.
  template<typename _Type>
    inline bool
    __is_null_pointer(_Type* __ptr)
   0:	f3 0f 1e fa          	endbr64 
   4:	55                   	push   %rbp
   5:	48 89 e5             	mov    %rsp,%rbp
   8:	48 89 7d f8          	mov    %rdi,-0x8(%rbp)
    { return __ptr == 0; }
   c:	48 83 7d f8 00       	cmpq   $0x0,-0x8(%rbp)
  11:	0f 94 c0             	sete   %al
  14:	5d                   	pop    %rbp
  15:	c3                   	ret    

Disassembly of section .text._ZSt19__iterator_categoryIPKcENSt15iterator_traitsIT_E17iterator_categoryERKS3_:

0000000000000000 <_ZSt19__iterator_categoryIPKcENSt15iterator_traitsIT_E17iterator_categoryERKS3_>:
   *  sugar for internal library use only.
  */
  template<typename _Iter>
    inline _GLIBCXX_CONSTEXPR
    typename iterator_traits<_Iter>::iterator_category
    __iterator_category(const _Iter&)
   0:	f3 0f 1e fa          	endbr64 
   4:	55                   	push   %rbp
   5:	48 89 e5             	mov    %rsp,%rbp
   8:	48 89 7d f8          	mov    %rdi,-0x8(%rbp)
    { return typename iterator_traits<_Iter>::iterator_category(); }
   c:	5d                   	pop    %rbp
   d:	c3                   	ret    

Disassembly of section .text._ZSt10__distanceIPKcENSt15iterator_traitsIT_E15difference_typeES3_S3_St26random_access_iterator_tag:

0000000000000000 <_ZSt10__distanceIPKcENSt15iterator_traitsIT_E15difference_typeES3_S3_St26random_access_iterator_tag>:
    __distance(_RandomAccessIterator __first, _RandomAccessIterator __last,
   0:	f3 0f 1e fa          	endbr64 
   4:	55                   	push   %rbp
   5:	48 89 e5             	mov    %rsp,%rbp
   8:	48 89 7d f8          	mov    %rdi,-0x8(%rbp)
   c:	48 89 75 f0          	mov    %rsi,-0x10(%rbp)
      return __last - __first;
  10:	48 8b 45 f0          	mov    -0x10(%rbp),%rax
  14:	48 2b 45 f8          	sub    -0x8(%rbp),%rax
    }
  18:	5d                   	pop    %rbp
  19:	c3                   	ret    

Disassembly of section .text._ZNSt8__detail5__modImLm4294967296ELm1ELm0EEET_S1_:

0000000000000000 <_ZNSt8__detail5__modImLm4294967296ELm1ELm0EEET_S1_>:
      __mod(_Tp __x)
   0:	f3 0f 1e fa          	endbr64 
   4:	55                   	push   %rbp
   5:	48 89 e5             	mov    %rsp,%rbp
   8:	48 83 ec 20          	sub    $0x20,%rsp
   c:	48 89 7d e8          	mov    %rdi,-0x18(%rbp)
	    constexpr _Tp __a1 = __a ? __a : 1;
  10:	48 c7 45 f8 01 00 00 	movq   $0x1,-0x8(%rbp)
  17:	00 
	    return _Mod<_Tp, __m, __a1, __c>::__calc(__x);
  18:	48 8b 45 e8          	mov    -0x18(%rbp),%rax
  1c:	48 89 c7             	mov    %rax,%rdi
  1f:	e8 00 00 00 00       	call   24 <_ZNSt8__detail5__modImLm4294967296ELm1ELm0EEET_S1_+0x24>
      }
  24:	c9                   	leave  
  25:	c3                   	ret    

Disassembly of section .text._ZNSt8__detail5__modImLm624ELm1ELm0EEET_S1_:

0000000000000000 <_ZNSt8__detail5__modImLm624ELm1ELm0EEET_S1_>:
      __mod(_Tp __x)
   0:	f3 0f 1e fa          	endbr64 
   4:	55                   	push   %rbp
   5:	48 89 e5             	mov    %rsp,%rbp
   8:	48 83 ec 20          	sub    $0x20,%rsp
   c:	48 89 7d e8          	mov    %rdi,-0x18(%rbp)
	    constexpr _Tp __a1 = __a ? __a : 1;
  10:	48 c7 45 f8 01 00 00 	movq   $0x1,-0x8(%rbp)
  17:	00 
	    return _Mod<_Tp, __m, __a1, __c>::__calc(__x);
  18:	48 8b 45 e8          	mov    -0x18(%rbp),%rax
  1c:	48 89 c7             	mov    %rax,%rdi
  1f:	e8 00 00 00 00       	call   24 <_ZNSt8__detail5__modImLm624ELm1ELm0EEET_S1_+0x24>
      }
  24:	c9                   	leave  
  25:	c3                   	ret    

Disassembly of section .text._ZNKSt24uniform_int_distributionIiE10param_type1bEv:

0000000000000000 <_ZNKSt24uniform_int_distributionIiE10param_type1bEv>:
	b() const
   0:	f3 0f 1e fa          	endbr64 
   4:	55                   	push   %rbp
   5:	48 89 e5             	mov    %rsp,%rbp
   8:	48 89 7d f8          	mov    %rdi,-0x8(%rbp)
	{ return _M_b; }
   c:	48 8b 45 f8          	mov    -0x8(%rbp),%rax
  10:	8b 40 04             	mov    0x4(%rax),%eax
  13:	5d                   	pop    %rbp
  14:	c3                   	ret    

Disassembly of section .text._ZNKSt24uniform_int_distributionIiE10param_type1aEv:

0000000000000000 <_ZNKSt24uniform_int_distributionIiE10param_type1aEv>:
	a() const
   0:	f3 0f 1e fa          	endbr64 
   4:	55                   	push   %rbp
   5:	48 89 e5             	mov    %rsp,%rbp
   8:	48 89 7d f8          	mov    %rdi,-0x8(%rbp)
	{ return _M_a; }
   c:	48 8b 45 f8          	mov    -0x8(%rbp),%rax
  10:	8b 00                	mov    (%rax),%eax
  12:	5d                   	pop    %rbp
  13:	c3                   	ret    

Disassembly of section .text._ZNSt24uniform_int_distributionIiE5_S_ndImSt23mersenne_twister_engineImLm32ELm624ELm397ELm31ELm2567483615ELm11ELm4294967295ELm7ELm2636928640ELm15ELm4022730752ELm18ELm1812433253EEjEET1_RT0_S4_:

0000000000000000 <_ZNSt24uniform_int_distributionIiE5_S_ndImSt23mersenne_twister_engineImLm32ELm624ELm397ELm31ELm2567483615ELm11ELm4294967295ELm7ELm2636928640ELm15ELm4022730752ELm18ELm1812433253EEjEET1_RT0_S4_>:
	_S_nd(_Urbg& __g, _Up __range)
   0:	f3 0f 1e fa          	endbr64 
   4:	55                   	push   %rbp
   5:	48 89 e5             	mov    %rsp,%rbp
   8:	48 83 ec 20          	sub    $0x20,%rsp
   c:	48 89 7d e8          	mov    %rdi,-0x18(%rbp)
  10:	89 75 e4             	mov    %esi,-0x1c(%rbp)
	  _Wp __product = _Wp(__g()) * _Wp(__range);
  13:	48 8b 45 e8          	mov    -0x18(%rbp),%rax
  17:	48 89 c7             	mov    %rax,%rdi
  1a:	e8 00 00 00 00       	call   1f <_ZNSt24uniform_int_distributionIiE5_S_ndImSt23mersenne_twister_engineImLm32ELm624ELm397ELm31ELm2567483615ELm11ELm4294967295ELm7ELm2636928640ELm15ELm4022730752ELm18ELm1812433253EEjEET1_RT0_S4_+0x1f>
  1f:	8b 55 e4             	mov    -0x1c(%rbp),%edx
  22:	48 0f af c2          	imul   %rdx,%rax
  26:	48 89 45 f8          	mov    %rax,-0x8(%rbp)
	  _Up __low = _Up(__product);
  2a:	48 8b 45 f8          	mov    -0x8(%rbp),%rax
  2e:	89 45 f0             	mov    %eax,-0x10(%rbp)
	  if (__low < __range)
  31:	8b 45 f0             	mov    -0x10(%rbp),%eax
  34:	3b 45 e4             	cmp    -0x1c(%rbp),%eax
  37:	73 38                	jae    71 <_ZNSt24uniform_int_distributionIiE5_S_ndImSt23mersenne_twister_engineImLm32ELm624ELm397ELm31ELm2567483615ELm11ELm4294967295ELm7ELm2636928640ELm15ELm4022730752ELm18ELm1812433253EEjEET1_RT0_S4_+0x71>
	      _Up __threshold = -__range % __range;
  39:	8b 45 e4             	mov    -0x1c(%rbp),%eax
  3c:	f7 d8                	neg    %eax
  3e:	ba 00 00 00 00       	mov    $0x0,%edx
  43:	f7 75 e4             	divl   -0x1c(%rbp)
  46:	89 55 f4             	mov    %edx,-0xc(%rbp)
	      while (__low < __threshold)
  49:	eb 1e                	jmp    69 <_ZNSt24uniform_int_distributionIiE5_S_ndImSt23mersenne_twister_engineImLm32ELm624ELm397ELm31ELm2567483615ELm11ELm4294967295ELm7ELm2636928640ELm15ELm4022730752ELm18ELm1812433253EEjEET1_RT0_S4_+0x69>
		  __product = _Wp(__g()) * _Wp(__range);
  4b:	48 8b 45 e8          	mov    -0x18(%rbp),%rax
  4f:	48 89 c7             	mov    %rax,%rdi
  52:	e8 00 00 00 00       	call   57 <_ZNSt24uniform_int_distributionIiE5_S_ndImSt23mersenne_twister_engineImLm32ELm624ELm397ELm31ELm2567483615ELm11ELm4294967295ELm7ELm2636928640ELm15ELm4022730752ELm18ELm1812433253EEjEET1_RT0_S4_+0x57>
  57:	8b 55 e4             	mov    -0x1c(%rbp),%edx
  5a:	48 0f af c2          	imul   %rdx,%rax
  5e:	48 89 45 f8          	mov    %rax,-0x8(%rbp)
		  __low = _Up(__product);
  62:	48 8b 45 f8          	mov    -0x8(%rbp),%rax
  66:	89 45 f0             	mov    %eax,-0x10(%rbp)
	      while (__low < __threshold)
  69:	8b 45 f0             	mov    -0x10(%rbp),%eax
  6c:	3b 45 f4             	cmp    -0xc(%rbp),%eax
  6f:	72 da                	jb     4b <_ZNSt24uniform_int_distributionIiE5_S_ndImSt23mersenne_twister_engineImLm32ELm624ELm397ELm31ELm2567483615ELm11ELm4294967295ELm7ELm2636928640ELm15ELm4022730752ELm18ELm1812433253EEjEET1_RT0_S4_+0x4b>
	  return __product >> _Up_traits::__digits;
  71:	48 8b 45 f8          	mov    -0x8(%rbp),%rax
  75:	48 c1 e8 20          	shr    $0x20,%rax
	}
  79:	c9                   	leave  
  7a:	c3                   	ret    

Disassembly of section .text._ZNSt23mersenne_twister_engineImLm32ELm624ELm397ELm31ELm2567483615ELm11ELm4294967295ELm7ELm2636928640ELm15ELm4022730752ELm18ELm1812433253EEclEv:

0000000000000000 <_ZNSt23mersenne_twister_engineImLm32ELm624ELm397ELm31ELm2567483615ELm11ELm4294967295ELm7ELm2636928640ELm15ELm4022730752ELm18ELm1812433253EEclEv>:
	   _UIntType __b, size_t __t, _UIntType __c, size_t __l,
	   _UIntType __f>
    typename
    mersenne_twister_engine<_UIntType, __w, __n, __m, __r, __a, __u, __d,
			    __s, __b, __t, __c, __l, __f>::result_type
    mersenne_twister_engine<_UIntType, __w, __n, __m, __r, __a, __u, __d,
   0:	f3 0f 1e fa          	endbr64 
   4:	55                   	push   %rbp
   5:	48 89 e5             	mov    %rsp,%rbp
   8:	48 83 ec 20          	sub    $0x20,%rsp
   c:	48 89 7d e8          	mov    %rdi,-0x18(%rbp)
			    __s, __b, __t, __c, __l, __f>::
    operator()()
    {
      // Reload the vector - cost is O(n) amortized over n calls.
      if (_M_p >= state_size)
  10:	48 8b 45 e8          	mov    -0x18(%rbp),%rax
  14:	48 8b 80 80 13 00 00 	mov    0x1380(%rax),%rax
  1b:	48 3d 6f 02 00 00    	cmp    $0x26f,%rax
  21:	76 0c                	jbe    2f <_ZNSt23mersenne_twister_engineImLm32ELm624ELm397ELm31ELm2567483615ELm11ELm4294967295ELm7ELm2636928640ELm15ELm4022730752ELm18ELm1812433253EEclEv+0x2f>
	_M_gen_rand();
  23:	48 8b 45 e8          	mov    -0x18(%rbp),%rax
  27:	48 89 c7             	mov    %rax,%rdi
  2a:	e8 00 00 00 00       	call   2f <_ZNSt23mersenne_twister_engineImLm32ELm624ELm397ELm31ELm2567483615ELm11ELm4294967295ELm7ELm2636928640ELm15ELm4022730752ELm18ELm1812433253EEclEv+0x2f>

      // Calculate o(x(i)).
      result_type __z = _M_x[_M_p++];
  2f:	48 8b 45 e8          	mov    -0x18(%rbp),%rax
  33:	48 8b 80 80 13 00 00 	mov    0x1380(%rax),%rax
  3a:	48 8d 48 01          	lea    0x1(%rax),%rcx
  3e:	48 8b 55 e8          	mov    -0x18(%rbp),%rdx
  42:	48 89 8a 80 13 00 00 	mov    %rcx,0x1380(%rdx)
  49:	48 8b 55 e8          	mov    -0x18(%rbp),%rdx
  4d:	48 8b 04 c2          	mov    (%rdx,%rax,8),%rax
  51:	48 89 45 f8          	mov    %rax,-0x8(%rbp)
      __z ^= (__z >> __u) & __d;
  55:	48 8b 45 f8          	mov    -0x8(%rbp),%rax
  59:	48 c1 e8 0b          	shr    $0xb,%rax
  5d:	89 c0                	mov    %eax,%eax
  5f:	48 31 45 f8          	xor    %rax,-0x8(%rbp)
      __z ^= (__z << __s) & __b;
  63:	48 8b 45 f8          	mov    -0x8(%rbp),%rax
  67:	48 c1 e0 07          	shl    $0x7,%rax
  6b:	25 80 56 2c 9d       	and    $0x9d2c5680,%eax
  70:	48 31 45 f8          	xor    %rax,-0x8(%rbp)
      __z ^= (__z << __t) & __c;
  74:	48 8b 45 f8          	mov    -0x8(%rbp),%rax
  78:	48 c1 e0 0f          	shl    $0xf,%rax
  7c:	25 00 00 c6 ef       	and    $0xefc60000,%eax
  81:	48 31 45 f8          	xor    %rax,-0x8(%rbp)
      __z ^= (__z >> __l);
  85:	48 8b 45 f8          	mov    -0x8(%rbp),%rax
  89:	48 c1 e8 12          	shr    $0x12,%rax
  8d:	48 31 45 f8          	xor    %rax,-0x8(%rbp)

      return __z;
  91:	48 8b 45 f8          	mov    -0x8(%rbp),%rax
    }
  95:	c9                   	leave  
  96:	c3                   	ret    

Disassembly of section .text._ZN9__gnu_cxx17__normal_iteratorIPKiSt6vectorIiSaIiEEEC2ERKS2_:

0000000000000000 <_ZN9__gnu_cxx17__normal_iteratorIPKiSt6vectorIiSaIiEEEC1ERKS2_>:
      __normal_iterator(const _Iterator& __i) _GLIBCXX_NOEXCEPT
   0:	f3 0f 1e fa          	endbr64 
   4:	55                   	push   %rbp
   5:	48 89 e5             	mov    %rsp,%rbp
   8:	48 89 7d f8          	mov    %rdi,-0x8(%rbp)
   c:	48 89 75 f0          	mov    %rsi,-0x10(%rbp)
      : _M_current(__i) { }
  10:	48 8b 45 f0          	mov    -0x10(%rbp),%rax
  14:	48 8b 10             	mov    (%rax),%rdx
  17:	48 8b 45 f8          	mov    -0x8(%rbp),%rax
  1b:	48 89 10             	mov    %rdx,(%rax)
  1e:	90                   	nop
  1f:	5d                   	pop    %rbp
  20:	c3                   	ret    

Disassembly of section .text._ZNK9__gnu_cxx17__normal_iteratorIPKiSt6vectorIiSaIiEEE4baseEv:

0000000000000000 <_ZNK9__gnu_cxx17__normal_iteratorIPKiSt6vectorIiSaIiEEE4baseEv>:
      base() const _GLIBCXX_NOEXCEPT
   0:	f3 0f 1e fa          	endbr64 
   4:	55                   	push   %rbp
   5:	48 89 e5             	mov    %rsp,%rbp
   8:	48 89 7d f8          	mov    %rdi,-0x8(%rbp)
      { return _M_current; }
   c:	48 8b 45 f8          	mov    -0x8(%rbp),%rax
  10:	5d                   	pop    %rbp
  11:	c3                   	ret    

Disassembly of section .text._ZNSt6vectorIiSaIiEE11_S_max_sizeERKS0_:

0000000000000000 <_ZNSt6vectorIiSaIiEE11_S_max_sizeERKS0_>:

      static size_type
      _S_max_size(const _Tp_alloc_type& __a) _GLIBCXX_NOEXCEPT
   0:	f3 0f 1e fa          	endbr64 
   4:	55                   	push   %rbp
   5:	48 89 e5             	mov    %rsp,%rbp
   8:	48 83 ec 30          	sub    $0x30,%rsp
   c:	48 89 7d d8          	mov    %rdi,-0x28(%rbp)
  10:	64 48 8b 04 25 28 00 	mov    %fs:0x28,%rax
  17:	00 00 
  19:	48 89 45 f8          	mov    %rax,-0x8(%rbp)
  1d:	31 c0                	xor    %eax,%eax
      {
	// std::distance(begin(), end()) cannot be greater than PTRDIFF_MAX,
	// and realistically we can't store more than PTRDIFF_MAX/sizeof(T)
	// (even if std::allocator_traits::max_size says we can).
	const size_t __diffmax
  1f:	48 b8 ff ff ff ff ff 	movabs $0x1fffffffffffffff,%rax
  26:	ff ff 1f 
  29:	48 89 45 e8          	mov    %rax,-0x18(%rbp)
	  = __gnu_cxx::__numeric_traits<ptrdiff_t>::__max / sizeof(_Tp);
	const size_t __allocmax = _Alloc_traits::max_size(__a);
  2d:	48 8b 45 d8          	mov    -0x28(%rbp),%rax
  31:	48 89 c7             	mov    %rax,%rdi
  34:	e8 00 00 00 00       	call   39 <_ZNSt6vectorIiSaIiEE11_S_max_sizeERKS0_+0x39>
  39:	48 89 45 f0          	mov    %rax,-0x10(%rbp)
	return (std::min)(__diffmax, __allocmax);
  3d:	48 8d 55 f0          	lea    -0x10(%rbp),%rdx
  41:	48 8d 45 e8          	lea    -0x18(%rbp),%rax
  45:	48 89 d6             	mov    %rdx,%rsi
  48:	48 89 c7             	mov    %rax,%rdi
  4b:	e8 00 00 00 00       	call   50 <_ZNSt6vectorIiSaIiEE11_S_max_sizeERKS0_+0x50>
  50:	48 8b 00             	mov    (%rax),%rax
      }
  53:	48 8b 55 f8          	mov    -0x8(%rbp),%rdx
  57:	64 48 2b 14 25 28 00 	sub    %fs:0x28,%rdx
  5e:	00 00 
  60:	74 05                	je     67 <_ZNSt6vectorIiSaIiEE11_S_max_sizeERKS0_+0x67>
  62:	e8 00 00 00 00       	call   67 <_ZNSt6vectorIiSaIiEE11_S_max_sizeERKS0_+0x67>
  67:	c9                   	leave  
  68:	c3                   	ret    

Disassembly of section .text._ZNSt12_Vector_baseIiSaIiEE12_Vector_implC2ERKS0_:

0000000000000000 <_ZNSt12_Vector_baseIiSaIiEE12_Vector_implC1ERKS0_>:
	_Vector_impl(_Tp_alloc_type const& __a) _GLIBCXX_NOEXCEPT
   0:	f3 0f 1e fa          	endbr64 
   4:	55                   	push   %rbp
   5:	48 89 e5             	mov    %rsp,%rbp
   8:	48 83 ec 10          	sub    $0x10,%rsp
   c:	48 89 7d f8          	mov    %rdi,-0x8(%rbp)
  10:	48 89 75 f0          	mov    %rsi,-0x10(%rbp)
	: _Tp_alloc_type(__a)
  14:	48 8b 55 f0          	mov    -0x10(%rbp),%rdx
  18:	48 8b 45 f8          	mov    -0x8(%rbp),%rax
  1c:	48 89 d6             	mov    %rdx,%rsi
  1f:	48 89 c7             	mov    %rax,%rdi
  22:	e8 00 00 00 00       	call   27 <_ZNSt12_Vector_baseIiSaIiEE12_Vector_implC1ERKS0_+0x27>
  27:	48 8b 45 f8          	mov    -0x8(%rbp),%rax
  2b:	48 89 c7             	mov    %rax,%rdi
  2e:	e8 00 00 00 00       	call   33 <_ZNSt12_Vector_baseIiSaIiEE12_Vector_implC1ERKS0_+0x33>
	{ }
  33:	90                   	nop
  34:	c9                   	leave  
  35:	c3                   	ret    

Disassembly of section .text._ZNSt12_Vector_baseIiSaIiEE17_M_create_storageEm:

0000000000000000 <_ZNSt12_Vector_baseIiSaIiEE17_M_create_storageEm>:
      _M_create_storage(size_t __n)
   0:	f3 0f 1e fa          	endbr64 
   4:	55                   	push   %rbp
   5:	48 89 e5             	mov    %rsp,%rbp
   8:	48 83 ec 10          	sub    $0x10,%rsp
   c:	48 89 7d f8          	mov    %rdi,-0x8(%rbp)
  10:	48 89 75 f0          	mov    %rsi,-0x10(%rbp)
	this->_M_impl._M_start = this->_M_allocate(__n);
  14:	48 8b 55 f0          	mov    -0x10(%rbp),%rdx
  18:	48 8b 45 f8          	mov    -0x8(%rbp),%rax
  1c:	48 89 d6             	mov    %rdx,%rsi
  1f:	48 89 c7             	mov    %rax,%rdi
  22:	e8 00 00 00 00       	call   27 <_ZNSt12_Vector_baseIiSaIiEE17_M_create_storageEm+0x27>
  27:	48 8b 55 f8          	mov    -0x8(%rbp),%rdx
  2b:	48 89 02             	mov    %rax,(%rdx)
	this->_M_impl._M_finish = this->_M_impl._M_start;
  2e:	48 8b 45 f8          	mov    -0x8(%rbp),%rax
  32:	48 8b 10             	mov    (%rax),%rdx
  35:	48 8b 45 f8          	mov    -0x8(%rbp),%rax
  39:	48 89 50 08          	mov    %rdx,0x8(%rax)
	this->_M_impl._M_end_of_storage = this->_M_impl._M_start + __n;
  3d:	48 8b 45 f8          	mov    -0x8(%rbp),%rax
  41:	48 8b 10             	mov    (%rax),%rdx
  44:	48 8b 45 f0          	mov    -0x10(%rbp),%rax
  48:	48 c1 e0 02          	shl    $0x2,%rax
  4c:	48 01 c2             	add    %rax,%rdx
  4f:	48 8b 45 f8          	mov    -0x8(%rbp),%rax
  53:	48 89 50 10          	mov    %rdx,0x10(%rax)
      }
  57:	90                   	nop
  58:	c9                   	leave  
  59:	c3                   	ret    

Disassembly of section .text._ZSt27__uninitialized_default_n_aIPimiET_S1_T0_RSaIT1_E:

0000000000000000 <_ZSt27__uninitialized_default_n_aIPimiET_S1_T0_RSaIT1_E>:

  // __uninitialized_default_n_a specialization for std::allocator,
  // which ignores the allocator and value-initializes the elements.
  template<typename _ForwardIterator, typename _Size, typename _Tp>
    inline _ForwardIterator
    __uninitialized_default_n_a(_ForwardIterator __first, _Size __n, 
   0:	f3 0f 1e fa          	endbr64 
   4:	55                   	push   %rbp
   5:	48 89 e5             	mov    %rsp,%rbp
   8:	48 83 ec 20          	sub    $0x20,%rsp
   c:	48 89 7d f8          	mov    %rdi,-0x8(%rbp)
  10:	48 89 75 f0          	mov    %rsi,-0x10(%rbp)
  14:	48 89 55 e8          	mov    %rdx,-0x18(%rbp)
				allocator<_Tp>&)
    { return std::__uninitialized_default_n(__first, __n); }
  18:	48 8b 55 f0          	mov    -0x10(%rbp),%rdx
  1c:	48 8b 45 f8          	mov    -0x8(%rbp),%rax
  20:	48 89 d6             	mov    %rdx,%rsi
  23:	48 89 c7             	mov    %rax,%rdi
  26:	e8 00 00 00 00       	call   2b <_ZSt27__uninitialized_default_n_aIPimiET_S1_T0_RSaIT1_E+0x2b>
  2b:	c9                   	leave  
  2c:	c3                   	ret    

Disassembly of section .text._ZN9__gnu_cxx13new_allocatorIiEC2ERKS1_:

0000000000000000 <_ZN9__gnu_cxx13new_allocatorIiEC1ERKS1_>:
      new_allocator(const new_allocator&) _GLIBCXX_USE_NOEXCEPT { }
   0:	f3 0f 1e fa          	endbr64 
   4:	55                   	push   %rbp
   5:	48 89 e5             	mov    %rsp,%rbp
   8:	48 89 7d f8          	mov    %rdi,-0x8(%rbp)
   c:	48 89 75 f0          	mov    %rsi,-0x10(%rbp)
  10:	90                   	nop
  11:	5d                   	pop    %rbp
  12:	c3                   	ret    

Disassembly of section .text._ZNSt16allocator_traitsISaIiEE10deallocateERS0_Pim:

0000000000000000 <_ZNSt16allocator_traitsISaIiEE10deallocateERS0_Pim>:
       *  @param  __n  The number of objects space was allocated for.
       *
       *  Calls <tt> a.deallocate(p, n) </tt>
      */
      static _GLIBCXX20_CONSTEXPR void
      deallocate(allocator_type& __a, pointer __p, size_type __n)
   0:	f3 0f 1e fa          	endbr64 
   4:	55                   	push   %rbp
   5:	48 89 e5             	mov    %rsp,%rbp
   8:	48 83 ec 20          	sub    $0x20,%rsp
   c:	48 89 7d f8          	mov    %rdi,-0x8(%rbp)
  10:	48 89 75 f0          	mov    %rsi,-0x10(%rbp)
  14:	48 89 55 e8          	mov    %rdx,-0x18(%rbp)
      { __a.deallocate(__p, __n); }
  18:	48 8b 55 e8          	mov    -0x18(%rbp),%rdx
  1c:	48 8b 4d f0          	mov    -0x10(%rbp),%rcx
  20:	48 8b 45 f8          	mov    -0x8(%rbp),%rax
  24:	48 89 ce             	mov    %rcx,%rsi
  27:	48 89 c7             	mov    %rax,%rdi
  2a:	e8 00 00 00 00       	call   2f <_ZNSt16allocator_traitsISaIiEE10deallocateERS0_Pim+0x2f>
  2f:	90                   	nop
  30:	c9                   	leave  
  31:	c3                   	ret    

Disassembly of section .text._ZNSt8__detail4_ModImLm4294967296ELm1ELm0ELb1ELb1EE6__calcEm:

0000000000000000 <_ZNSt8__detail4_ModImLm4294967296ELm1ELm0ELb1ELb1EE6__calcEm>:
	__calc(_Tp __x)
   0:	f3 0f 1e fa          	endbr64 
   4:	55                   	push   %rbp
   5:	48 89 e5             	mov    %rsp,%rbp
   8:	48 89 7d e8          	mov    %rdi,-0x18(%rbp)
	  _Tp __res = __a * __x + __c;
   c:	48 8b 45 e8          	mov    -0x18(%rbp),%rax
  10:	48 89 45 f8          	mov    %rax,-0x8(%rbp)
	    __res %= __m;
  14:	b8 ff ff ff ff       	mov    $0xffffffff,%eax
  19:	48 21 45 f8          	and    %rax,-0x8(%rbp)
	  return __res;
  1d:	48 8b 45 f8          	mov    -0x8(%rbp),%rax
	}
  21:	5d                   	pop    %rbp
  22:	c3                   	ret    

Disassembly of section .text._ZNSt8__detail4_ModImLm624ELm1ELm0ELb1ELb1EE6__calcEm:

0000000000000000 <_ZNSt8__detail4_ModImLm624ELm1ELm0ELb1ELb1EE6__calcEm>:
	__calc(_Tp __x)
   0:	f3 0f 1e fa          	endbr64 
   4:	55                   	push   %rbp
   5:	48 89 e5             	mov    %rsp,%rbp
   8:	48 89 7d e8          	mov    %rdi,-0x18(%rbp)
	  _Tp __res = __a * __x + __c;
   c:	48 8b 45 e8          	mov    -0x18(%rbp),%rax
  10:	48 89 45 f8          	mov    %rax,-0x8(%rbp)
	    __res %= __m;
  14:	48 8b 4d f8          	mov    -0x8(%rbp),%rcx
  18:	48 89 c8             	mov    %rcx,%rax
  1b:	48 c1 e8 04          	shr    $0x4,%rax
  1f:	48 ba 21 0d d2 20 0d 	movabs $0xd20d20d20d20d21,%rdx
  26:	d2 20 0d 
  29:	48 f7 e2             	mul    %rdx
  2c:	48 89 d0             	mov    %rdx,%rax
  2f:	48 d1 e8             	shr    %rax
  32:	48 69 d0 70 02 00 00 	imul   $0x270,%rax,%rdx
  39:	48 89 c8             	mov    %rcx,%rax
  3c:	48 29 d0             	sub    %rdx,%rax
  3f:	48 89 45 f8          	mov    %rax,-0x8(%rbp)
	  return __res;
  43:	48 8b 45 f8          	mov    -0x8(%rbp),%rax
	}
  47:	5d                   	pop    %rbp
  48:	c3                   	ret    

Disassembly of section .text._ZNSt23mersenne_twister_engineImLm32ELm624ELm397ELm31ELm2567483615ELm11ELm4294967295ELm7ELm2636928640ELm15ELm4022730752ELm18ELm1812433253EE11_M_gen_randEv:

0000000000000000 <_ZNSt23mersenne_twister_engineImLm32ELm624ELm397ELm31ELm2567483615ELm11ELm4294967295ELm7ELm2636928640ELm15ELm4022730752ELm18ELm1812433253EE11_M_gen_randEv>:
    mersenne_twister_engine<_UIntType, __w, __n, __m, __r, __a, __u, __d,
   0:	f3 0f 1e fa          	endbr64 
   4:	55                   	push   %rbp
   5:	48 89 e5             	mov    %rsp,%rbp
   8:	48 89 7d b8          	mov    %rdi,-0x48(%rbp)
      const _UIntType __upper_mask = (~_UIntType()) << __r;
   c:	48 c7 45 d8 00 00 00 	movq   $0xffffffff80000000,-0x28(%rbp)
  13:	80 
      const _UIntType __lower_mask = ~__upper_mask;
  14:	48 c7 45 e0 ff ff ff 	movq   $0x7fffffff,-0x20(%rbp)
  1b:	7f 
      for (size_t __k = 0; __k < (__n - __m); ++__k)
  1c:	48 c7 45 c8 00 00 00 	movq   $0x0,-0x38(%rbp)
  23:	00 
  24:	eb 7d                	jmp    a3 <_ZNSt23mersenne_twister_engineImLm32ELm624ELm397ELm31ELm2567483615ELm11ELm4294967295ELm7ELm2636928640ELm15ELm4022730752ELm18ELm1812433253EE11_M_gen_randEv+0xa3>
	  _UIntType __y = ((_M_x[__k] & __upper_mask)
  26:	48 8b 45 b8          	mov    -0x48(%rbp),%rax
  2a:	48 8b 55 c8          	mov    -0x38(%rbp),%rdx
  2e:	48 8b 04 d0          	mov    (%rax,%rdx,8),%rax
  32:	48 25 00 00 00 80    	and    $0xffffffff80000000,%rax
  38:	48 89 c1             	mov    %rax,%rcx
			   | (_M_x[__k + 1] & __lower_mask));
  3b:	48 8b 45 c8          	mov    -0x38(%rbp),%rax
  3f:	48 8d 50 01          	lea    0x1(%rax),%rdx
  43:	48 8b 45 b8          	mov    -0x48(%rbp),%rax
  47:	48 8b 04 d0          	mov    (%rax,%rdx,8),%rax
  4b:	25 ff ff ff 7f       	and    $0x7fffffff,%eax
	  _UIntType __y = ((_M_x[__k] & __upper_mask)
  50:	48 09 c8             	or     %rcx,%rax
  53:	48 89 45 f8          	mov    %rax,-0x8(%rbp)
	  _M_x[__k] = (_M_x[__k + __m] ^ (__y >> 1)
  57:	48 8b 45 c8          	mov    -0x38(%rbp),%rax
  5b:	48 8d 90 8d 01 00 00 	lea    0x18d(%rax),%rdx
  62:	48 8b 45 b8          	mov    -0x48(%rbp),%rax
  66:	48 8b 14 d0          	mov    (%rax,%rdx,8),%rdx
  6a:	48 8b 45 f8          	mov    -0x8(%rbp),%rax
  6e:	48 d1 e8             	shr    %rax
  71:	48 31 c2             	xor    %rax,%rdx
		       ^ ((__y & 0x01) ? __a : 0));
  74:	48 8b 45 f8          	mov    -0x8(%rbp),%rax
  78:	83 e0 01             	and    $0x1,%eax
  7b:	48 85 c0             	test   %rax,%rax
  7e:	74 07                	je     87 <_ZNSt23mersenne_twister_engineImLm32ELm624ELm397ELm31ELm2567483615ELm11ELm4294967295ELm7ELm2636928640ELm15ELm4022730752ELm18ELm1812433253EE11_M_gen_randEv+0x87>
  80:	b8 df b0 08 99       	mov    $0x9908b0df,%eax
  85:	eb 05                	jmp    8c <_ZNSt23mersenne_twister_engineImLm32ELm624ELm397ELm31ELm2567483615ELm11ELm4294967295ELm7ELm2636928640ELm15ELm4022730752ELm18ELm1812433253EE11_M_gen_randEv+0x8c>
  87:	b8 00 00 00 00       	mov    $0x0,%eax
  8c:	48 31 d0             	xor    %rdx,%rax
  8f:	48 89 c1             	mov    %rax,%rcx
	  _M_x[__k] = (_M_x[__k + __m] ^ (__y >> 1)
  92:	48 8b 45 b8          	mov    -0x48(%rbp),%rax
  96:	48 8b 55 c8          	mov    -0x38(%rbp),%rdx
  9a:	48 89 0c d0          	mov    %rcx,(%rax,%rdx,8)
      for (size_t __k = 0; __k < (__n - __m); ++__k)
  9e:	48 83 45 c8 01       	addq   $0x1,-0x38(%rbp)
  a3:	48 81 7d c8 e2 00 00 	cmpq   $0xe2,-0x38(%rbp)
  aa:	00 
  ab:	0f 86 75 ff ff ff    	jbe    26 <_ZNSt23mersenne_twister_engineImLm32ELm624ELm397ELm31ELm2567483615ELm11ELm4294967295ELm7ELm2636928640ELm15ELm4022730752ELm18ELm1812433253EE11_M_gen_randEv+0x26>
      for (size_t __k = (__n - __m); __k < (__n - 1); ++__k)
  b1:	48 c7 45 d0 e3 00 00 	movq   $0xe3,-0x30(%rbp)
  b8:	00 
  b9:	eb 7d                	jmp    138 <_ZNSt23mersenne_twister_engineImLm32ELm624ELm397ELm31ELm2567483615ELm11ELm4294967295ELm7ELm2636928640ELm15ELm4022730752ELm18ELm1812433253EE11_M_gen_randEv+0x138>
	  _UIntType __y = ((_M_x[__k] & __upper_mask)
  bb:	48 8b 45 b8          	mov    -0x48(%rbp),%rax
  bf:	48 8b 55 d0          	mov    -0x30(%rbp),%rdx
  c3:	48 8b 04 d0          	mov    (%rax,%rdx,8),%rax
  c7:	48 25 00 00 00 80    	and    $0xffffffff80000000,%rax
  cd:	48 89 c1             	mov    %rax,%rcx
			   | (_M_x[__k + 1] & __lower_mask));
  d0:	48 8b 45 d0          	mov    -0x30(%rbp),%rax
  d4:	48 8d 50 01          	lea    0x1(%rax),%rdx
  d8:	48 8b 45 b8          	mov    -0x48(%rbp),%rax
  dc:	48 8b 04 d0          	mov    (%rax,%rdx,8),%rax
  e0:	25 ff ff ff 7f       	and    $0x7fffffff,%eax
	  _UIntType __y = ((_M_x[__k] & __upper_mask)
  e5:	48 09 c8             	or     %rcx,%rax
  e8:	48 89 45 f0          	mov    %rax,-0x10(%rbp)
	  _M_x[__k] = (_M_x[__k + (__m - __n)] ^ (__y >> 1)
  ec:	48 8b 45 d0          	mov    -0x30(%rbp),%rax
  f0:	48 8d 90 1d ff ff ff 	lea    -0xe3(%rax),%rdx
  f7:	48 8b 45 b8          	mov    -0x48(%rbp),%rax
  fb:	48 8b 14 d0          	mov    (%rax,%rdx,8),%rdx
  ff:	48 8b 45 f0          	mov    -0x10(%rbp),%rax
 103:	48 d1 e8             	shr    %rax
 106:	48 31 c2             	xor    %rax,%rdx
		       ^ ((__y & 0x01) ? __a : 0));
 109:	48 8b 45 f0          	mov    -0x10(%rbp),%rax
 10d:	83 e0 01             	and    $0x1,%eax
 110:	48 85 c0             	test   %rax,%rax
 113:	74 07                	je     11c <_ZNSt23mersenne_twister_engineImLm32ELm624ELm397ELm31ELm2567483615ELm11ELm4294967295ELm7ELm2636928640ELm15ELm4022730752ELm18ELm1812433253EE11_M_gen_randEv+0x11c>
 115:	b8 df b0 08 99       	mov    $0x9908b0df,%eax
 11a:	eb 05                	jmp    121 <_ZNSt23mersenne_twister_engineImLm32ELm624ELm397ELm31ELm2567483615ELm11ELm4294967295ELm7ELm2636928640ELm15ELm4022730752ELm18ELm1812433253EE11_M_gen_randEv+0x121>
 11c:	b8 00 00 00 00       	mov    $0x0,%eax
 121:	48 31 d0             	xor    %rdx,%rax
 124:	48 89 c1             	mov    %rax,%rcx
	  _M_x[__k] = (_M_x[__k + (__m - __n)] ^ (__y >> 1)
 127:	48 8b 45 b8          	mov    -0x48(%rbp),%rax
 12b:	48 8b 55 d0          	mov    -0x30(%rbp),%rdx
 12f:	48 89 0c d0          	mov    %rcx,(%rax,%rdx,8)
      for (size_t __k = (__n - __m); __k < (__n - 1); ++__k)
 133:	48 83 45 d0 01       	addq   $0x1,-0x30(%rbp)
 138:	48 81 7d d0 6e 02 00 	cmpq   $0x26e,-0x30(%rbp)
 13f:	00 
 140:	0f 86 75 ff ff ff    	jbe    bb <_ZNSt23mersenne_twister_engineImLm32ELm624ELm397ELm31ELm2567483615ELm11ELm4294967295ELm7ELm2636928640ELm15ELm4022730752ELm18ELm1812433253EE11_M_gen_randEv+0xbb>
      _UIntType __y = ((_M_x[__n - 1] & __upper_mask)
 146:	48 8b 45 b8          	mov    -0x48(%rbp),%rax
 14a:	48 8b 80 78 13 00 00 	mov    0x1378(%rax),%rax
 151:	48 25 00 00 00 80    	and    $0xffffffff80000000,%rax
 157:	48 89 c2             	mov    %rax,%rdx
		       | (_M_x[0] & __lower_mask));
 15a:	48 8b 45 b8          	mov    -0x48(%rbp),%rax
 15e:	48 8b 00             	mov    (%rax),%rax
 161:	25 ff ff ff 7f       	and    $0x7fffffff,%eax
      _UIntType __y = ((_M_x[__n - 1] & __upper_mask)
 166:	48 09 d0             	or     %rdx,%rax
 169:	48 89 45 e8          	mov    %rax,-0x18(%rbp)
      _M_x[__n - 1] = (_M_x[__m - 1] ^ (__y >> 1)
 16d:	48 8b 45 b8          	mov    -0x48(%rbp),%rax
 171:	48 8b 90 60 0c 00 00 	mov    0xc60(%rax),%rdx
 178:	48 8b 45 e8          	mov    -0x18(%rbp),%rax
 17c:	48 d1 e8             	shr    %rax
 17f:	48 31 c2             	xor    %rax,%rdx
		       ^ ((__y & 0x01) ? __a : 0));
 182:	48 8b 45 e8          	mov    -0x18(%rbp),%rax
 186:	83 e0 01             	and    $0x1,%eax
 189:	48 85 c0             	test   %rax,%rax
 18c:	74 07                	je     195 <_ZNSt23mersenne_twister_engineImLm32ELm624ELm397ELm31ELm2567483615ELm11ELm4294967295ELm7ELm2636928640ELm15ELm4022730752ELm18ELm1812433253EE11_M_gen_randEv+0x195>
 18e:	b8 df b0 08 99       	mov    $0x9908b0df,%eax
 193:	eb 05                	jmp    19a <_ZNSt23mersenne_twister_engineImLm32ELm624ELm397ELm31ELm2567483615ELm11ELm4294967295ELm7ELm2636928640ELm15ELm4022730752ELm18ELm1812433253EE11_M_gen_randEv+0x19a>
 195:	b8 00 00 00 00       	mov    $0x0,%eax
 19a:	48 31 c2             	xor    %rax,%rdx
      _M_x[__n - 1] = (_M_x[__m - 1] ^ (__y >> 1)
 19d:	48 8b 45 b8          	mov    -0x48(%rbp),%rax
 1a1:	48 89 90 78 13 00 00 	mov    %rdx,0x1378(%rax)
      _M_p = 0;
 1a8:	48 8b 45 b8          	mov    -0x48(%rbp),%rax
 1ac:	48 c7 80 80 13 00 00 	movq   $0x0,0x1380(%rax)
 1b3:	00 00 00 00 
    }
 1b7:	90                   	nop
 1b8:	5d                   	pop    %rbp
 1b9:	c3                   	ret    

Disassembly of section .text._ZNSt16allocator_traitsISaIiEE8max_sizeERKS0_:

0000000000000000 <_ZNSt16allocator_traitsISaIiEE8max_sizeERKS0_>:
       *  @brief  The maximum supported allocation size
       *  @param  __a  An allocator.
       *  @return @c __a.max_size()
      */
      static _GLIBCXX20_CONSTEXPR size_type
      max_size(const allocator_type& __a __attribute__((__unused__))) noexcept
   0:	f3 0f 1e fa          	endbr64 
   4:	55                   	push   %rbp
   5:	48 89 e5             	mov    %rsp,%rbp
   8:	48 83 ec 10          	sub    $0x10,%rsp
   c:	48 89 7d f8          	mov    %rdi,-0x8(%rbp)
      {
#if __cplusplus <= 201703L
	return __a.max_size();
  10:	48 8b 45 f8          	mov    -0x8(%rbp),%rax
  14:	48 89 c7             	mov    %rax,%rdi
  17:	e8 00 00 00 00       	call   1c <_ZNSt16allocator_traitsISaIiEE8max_sizeERKS0_+0x1c>
#else
	return size_t(-1) / sizeof(value_type);
#endif
      }
  1c:	c9                   	leave  
  1d:	c3                   	ret    

Disassembly of section .text._ZSt3minImERKT_S2_S2_:

0000000000000000 <_ZSt3minImERKT_S2_S2_>:
    min(const _Tp& __a, const _Tp& __b)
   0:	f3 0f 1e fa          	endbr64 
   4:	55                   	push   %rbp
   5:	48 89 e5             	mov    %rsp,%rbp
   8:	48 89 7d f8          	mov    %rdi,-0x8(%rbp)
   c:	48 89 75 f0          	mov    %rsi,-0x10(%rbp)
      if (__b < __a)
  10:	48 8b 45 f0          	mov    -0x10(%rbp),%rax
  14:	48 8b 10             	mov    (%rax),%rdx
  17:	48 8b 45 f8          	mov    -0x8(%rbp),%rax
  1b:	48 8b 00             	mov    (%rax),%rax
  1e:	48 39 c2             	cmp    %rax,%rdx
  21:	73 06                	jae    29 <_ZSt3minImERKT_S2_S2_+0x29>
	return __b;
  23:	48 8b 45 f0          	mov    -0x10(%rbp),%rax
  27:	eb 04                	jmp    2d <_ZSt3minImERKT_S2_S2_+0x2d>
      return __a;
  29:	48 8b 45 f8          	mov    -0x8(%rbp),%rax
    }
  2d:	5d                   	pop    %rbp
  2e:	c3                   	ret    

Disassembly of section .text._ZNSt12_Vector_baseIiSaIiEE17_Vector_impl_dataC2Ev:

0000000000000000 <_ZNSt12_Vector_baseIiSaIiEE17_Vector_impl_dataC1Ev>:
	_Vector_impl_data() _GLIBCXX_NOEXCEPT
   0:	f3 0f 1e fa          	endbr64 
   4:	55                   	push   %rbp
   5:	48 89 e5             	mov    %rsp,%rbp
   8:	48 89 7d f8          	mov    %rdi,-0x8(%rbp)
	: _M_start(), _M_finish(), _M_end_of_storage()
   c:	48 8b 45 f8          	mov    -0x8(%rbp),%rax
  10:	48 c7 00 00 00 00 00 	movq   $0x0,(%rax)
  17:	48 8b 45 f8          	mov    -0x8(%rbp),%rax
  1b:	48 c7 40 08 00 00 00 	movq   $0x0,0x8(%rax)
  22:	00 
  23:	48 8b 45 f8          	mov    -0x8(%rbp),%rax
  27:	48 c7 40 10 00 00 00 	movq   $0x0,0x10(%rax)
  2e:	00 
	{ }
  2f:	90                   	nop
  30:	5d                   	pop    %rbp
  31:	c3                   	ret    

Disassembly of section .text._ZNSt12_Vector_baseIiSaIiEE11_M_allocateEm:

0000000000000000 <_ZNSt12_Vector_baseIiSaIiEE11_M_allocateEm>:
      _M_allocate(size_t __n)
   0:	f3 0f 1e fa          	endbr64 
   4:	55                   	push   %rbp
   5:	48 89 e5             	mov    %rsp,%rbp
   8:	48 83 ec 10          	sub    $0x10,%rsp
   c:	48 89 7d f8          	mov    %rdi,-0x8(%rbp)
  10:	48 89 75 f0          	mov    %rsi,-0x10(%rbp)
	return __n != 0 ? _Tr::allocate(_M_impl, __n) : pointer();
  14:	48 83 7d f0 00       	cmpq   $0x0,-0x10(%rbp)
  19:	74 15                	je     30 <_ZNSt12_Vector_baseIiSaIiEE11_M_allocateEm+0x30>
  1b:	48 8b 45 f8          	mov    -0x8(%rbp),%rax
  1f:	48 8b 55 f0          	mov    -0x10(%rbp),%rdx
  23:	48 89 d6             	mov    %rdx,%rsi
  26:	48 89 c7             	mov    %rax,%rdi
  29:	e8 00 00 00 00       	call   2e <_ZNSt12_Vector_baseIiSaIiEE11_M_allocateEm+0x2e>
  2e:	eb 05                	jmp    35 <_ZNSt12_Vector_baseIiSaIiEE11_M_allocateEm+0x35>
  30:	b8 00 00 00 00       	mov    $0x0,%eax
      }
  35:	c9                   	leave  
  36:	c3                   	ret    

Disassembly of section .text._ZSt25__uninitialized_default_nIPimET_S1_T0_:

0000000000000000 <_ZSt25__uninitialized_default_nIPimET_S1_T0_>:
    __uninitialized_default_n(_ForwardIterator __first, _Size __n)
   0:	f3 0f 1e fa          	endbr64 
   4:	55                   	push   %rbp
   5:	48 89 e5             	mov    %rsp,%rbp
   8:	48 83 ec 20          	sub    $0x20,%rsp
   c:	48 89 7d e8          	mov    %rdi,-0x18(%rbp)
  10:	48 89 75 e0          	mov    %rsi,-0x20(%rbp)
      constexpr bool __can_fill
  14:	c6 45 ff 01          	movb   $0x1,-0x1(%rbp)
	__uninit_default_n(__first, __n);
  18:	48 8b 55 e0          	mov    -0x20(%rbp),%rdx
  1c:	48 8b 45 e8          	mov    -0x18(%rbp),%rax
  20:	48 89 d6             	mov    %rdx,%rsi
  23:	48 89 c7             	mov    %rax,%rdi
  26:	e8 00 00 00 00       	call   2b <_ZSt25__uninitialized_default_nIPimET_S1_T0_+0x2b>
    }
  2b:	c9                   	leave  
  2c:	c3                   	ret    

Disassembly of section .text._ZN9__gnu_cxx13new_allocatorIiE10deallocateEPim:

0000000000000000 <_ZN9__gnu_cxx13new_allocatorIiE10deallocateEPim>:
	return static_cast<_Tp*>(::operator new(__n * sizeof(_Tp)));
      }

      // __p is not permitted to be a null pointer.
      void
      deallocate(_Tp* __p, size_type __t __attribute__ ((__unused__)))
   0:	f3 0f 1e fa          	endbr64 
   4:	55                   	push   %rbp
   5:	48 89 e5             	mov    %rsp,%rbp
   8:	48 83 ec 20          	sub    $0x20,%rsp
   c:	48 89 7d f8          	mov    %rdi,-0x8(%rbp)
  10:	48 89 75 f0          	mov    %rsi,-0x10(%rbp)
  14:	48 89 55 e8          	mov    %rdx,-0x18(%rbp)
# endif
			      std::align_val_t(alignof(_Tp)));
	    return;
	  }
#endif
	::operator delete(__p
  18:	48 8b 45 e8          	mov    -0x18(%rbp),%rax
  1c:	48 8d 14 85 00 00 00 	lea    0x0(,%rax,4),%rdx
  23:	00 
  24:	48 8b 45 f0          	mov    -0x10(%rbp),%rax
  28:	48 89 d6             	mov    %rdx,%rsi
  2b:	48 89 c7             	mov    %rax,%rdi
  2e:	e8 00 00 00 00       	call   33 <_ZN9__gnu_cxx13new_allocatorIiE10deallocateEPim+0x33>
#if __cpp_sized_deallocation
			  , __t * sizeof(_Tp)
#endif
			 );
      }
  33:	c9                   	leave  
  34:	c3                   	ret    

Disassembly of section .text._ZNK9__gnu_cxx13new_allocatorIiE8max_sizeEv:

0000000000000000 <_ZNK9__gnu_cxx13new_allocatorIiE8max_sizeEv>:

#if __cplusplus <= 201703L
      size_type
      max_size() const _GLIBCXX_USE_NOEXCEPT
   0:	f3 0f 1e fa          	endbr64 
   4:	55                   	push   %rbp
   5:	48 89 e5             	mov    %rsp,%rbp
   8:	48 83 ec 10          	sub    $0x10,%rsp
   c:	48 89 7d f8          	mov    %rdi,-0x8(%rbp)
      { return _M_max_size(); }
  10:	48 8b 45 f8          	mov    -0x8(%rbp),%rax
  14:	48 89 c7             	mov    %rax,%rdi
  17:	e8 00 00 00 00       	call   1c <_ZNK9__gnu_cxx13new_allocatorIiE8max_sizeEv+0x1c>
  1c:	c9                   	leave  
  1d:	c3                   	ret    

Disassembly of section .text._ZNSt16allocator_traitsISaIiEE8allocateERS0_m:

0000000000000000 <_ZNSt16allocator_traitsISaIiEE8allocateERS0_m>:
      allocate(allocator_type& __a, size_type __n)
   0:	f3 0f 1e fa          	endbr64 
   4:	55                   	push   %rbp
   5:	48 89 e5             	mov    %rsp,%rbp
   8:	48 83 ec 10          	sub    $0x10,%rsp
   c:	48 89 7d f8          	mov    %rdi,-0x8(%rbp)
  10:	48 89 75 f0          	mov    %rsi,-0x10(%rbp)
      { return __a.allocate(__n); }
  14:	48 8b 4d f0          	mov    -0x10(%rbp),%rcx
  18:	48 8b 45 f8          	mov    -0x8(%rbp),%rax
  1c:	ba 00 00 00 00       	mov    $0x0,%edx
  21:	48 89 ce             	mov    %rcx,%rsi
  24:	48 89 c7             	mov    %rax,%rdi
  27:	e8 00 00 00 00       	call   2c <_ZNSt16allocator_traitsISaIiEE8allocateERS0_m+0x2c>
  2c:	c9                   	leave  
  2d:	c3                   	ret    

Disassembly of section .text._ZSt11__addressofIiEPT_RS0_:

0000000000000000 <_ZSt11__addressofIiEPT_RS0_>:
   *  @brief Same as C++11 std::addressof
   *  @ingroup utilities
   */
  template<typename _Tp>
    inline _GLIBCXX_CONSTEXPR _Tp*
    __addressof(_Tp& __r) _GLIBCXX_NOEXCEPT
   0:	f3 0f 1e fa          	endbr64 
   4:	55                   	push   %rbp
   5:	48 89 e5             	mov    %rsp,%rbp
   8:	48 89 7d f8          	mov    %rdi,-0x8(%rbp)
    { return __builtin_addressof(__r); }
   c:	48 8b 45 f8          	mov    -0x8(%rbp),%rax
  10:	5d                   	pop    %rbp
  11:	c3                   	ret    

Disassembly of section .text._ZNSt27__uninitialized_default_n_1ILb1EE18__uninit_default_nIPimEET_S3_T0_:

0000000000000000 <_ZNSt27__uninitialized_default_n_1ILb1EE18__uninit_default_nIPimEET_S3_T0_>:
        __uninit_default_n(_ForwardIterator __first, _Size __n)
   0:	f3 0f 1e fa          	endbr64 
   4:	55                   	push   %rbp
   5:	48 89 e5             	mov    %rsp,%rbp
   8:	48 83 ec 20          	sub    $0x20,%rsp
   c:	48 89 7d e8          	mov    %rdi,-0x18(%rbp)
  10:	48 89 75 e0          	mov    %rsi,-0x20(%rbp)
	  if (__n > 0)
  14:	48 83 7d e0 00       	cmpq   $0x0,-0x20(%rbp)
  19:	74 40                	je     5b <_ZNSt27__uninitialized_default_n_1ILb1EE18__uninit_default_nIPimEET_S3_T0_+0x5b>
		= std::__addressof(*__first);
  1b:	48 8b 45 e8          	mov    -0x18(%rbp),%rax
  1f:	48 89 c7             	mov    %rax,%rdi
  22:	e8 00 00 00 00       	call   27 <_ZNSt27__uninitialized_default_n_1ILb1EE18__uninit_default_nIPimEET_S3_T0_+0x27>
  27:	48 89 45 f8          	mov    %rax,-0x8(%rbp)
	      std::_Construct(__val);
  2b:	48 8b 45 f8          	mov    -0x8(%rbp),%rax
  2f:	48 89 c7             	mov    %rax,%rdi
  32:	e8 00 00 00 00       	call   37 <_ZNSt27__uninitialized_default_n_1ILb1EE18__uninit_default_nIPimEET_S3_T0_+0x37>
	      ++__first;
  37:	48 83 45 e8 04       	addq   $0x4,-0x18(%rbp)
	      __first = std::fill_n(__first, __n - 1, *__val);
  3c:	48 8b 45 e0          	mov    -0x20(%rbp),%rax
  40:	48 8d 48 ff          	lea    -0x1(%rax),%rcx
  44:	48 8b 55 f8          	mov    -0x8(%rbp),%rdx
  48:	48 8b 45 e8          	mov    -0x18(%rbp),%rax
  4c:	48 89 ce             	mov    %rcx,%rsi
  4f:	48 89 c7             	mov    %rax,%rdi
  52:	e8 00 00 00 00       	call   57 <_ZNSt27__uninitialized_default_n_1ILb1EE18__uninit_default_nIPimEET_S3_T0_+0x57>
  57:	48 89 45 e8          	mov    %rax,-0x18(%rbp)
	  return __first;
  5b:	48 8b 45 e8          	mov    -0x18(%rbp),%rax
	}
  5f:	c9                   	leave  
  60:	c3                   	ret    

Disassembly of section .text._ZNK9__gnu_cxx13new_allocatorIiE11_M_max_sizeEv:

0000000000000000 <_ZNK9__gnu_cxx13new_allocatorIiE11_M_max_sizeEv>:
	{ return false; }
#endif

    private:
      _GLIBCXX_CONSTEXPR size_type
      _M_max_size() const _GLIBCXX_USE_NOEXCEPT
   0:	f3 0f 1e fa          	endbr64 
   4:	55                   	push   %rbp
   5:	48 89 e5             	mov    %rsp,%rbp
   8:	48 89 7d f8          	mov    %rdi,-0x8(%rbp)
      {
#if __PTRDIFF_MAX__ < __SIZE_MAX__
	return std::size_t(__PTRDIFF_MAX__) / sizeof(_Tp);
   c:	48 b8 ff ff ff ff ff 	movabs $0x1fffffffffffffff,%rax
  13:	ff ff 1f 
#else
	return std::size_t(-1) / sizeof(_Tp);
#endif
      }
  16:	5d                   	pop    %rbp
  17:	c3                   	ret    

Disassembly of section .text._ZN9__gnu_cxx13new_allocatorIiE8allocateEmPKv:

0000000000000000 <_ZN9__gnu_cxx13new_allocatorIiE8allocateEmPKv>:
      allocate(size_type __n, const void* = static_cast<const void*>(0))
   0:	f3 0f 1e fa          	endbr64 
   4:	55                   	push   %rbp
   5:	48 89 e5             	mov    %rsp,%rbp
   8:	48 83 ec 20          	sub    $0x20,%rsp
   c:	48 89 7d f8          	mov    %rdi,-0x8(%rbp)
  10:	48 89 75 f0          	mov    %rsi,-0x10(%rbp)
  14:	48 89 55 e8          	mov    %rdx,-0x18(%rbp)
	if (__builtin_expect(__n > this->_M_max_size(), false))
  18:	48 8b 45 f8          	mov    -0x8(%rbp),%rax
  1c:	48 89 c7             	mov    %rax,%rdi
  1f:	e8 00 00 00 00       	call   24 <_ZN9__gnu_cxx13new_allocatorIiE8allocateEmPKv+0x24>
  24:	48 39 45 f0          	cmp    %rax,-0x10(%rbp)
  28:	0f 97 c0             	seta   %al
  2b:	0f b6 c0             	movzbl %al,%eax
  2e:	48 85 c0             	test   %rax,%rax
  31:	0f 95 c0             	setne  %al
  34:	84 c0                	test   %al,%al
  36:	74 1a                	je     52 <_ZN9__gnu_cxx13new_allocatorIiE8allocateEmPKv+0x52>
	    if (__n > (std::size_t(-1) / sizeof(_Tp)))
  38:	48 b8 ff ff ff ff ff 	movabs $0x3fffffffffffffff,%rax
  3f:	ff ff 3f 
  42:	48 39 45 f0          	cmp    %rax,-0x10(%rbp)
  46:	76 05                	jbe    4d <_ZN9__gnu_cxx13new_allocatorIiE8allocateEmPKv+0x4d>
	      std::__throw_bad_array_new_length();
  48:	e8 00 00 00 00       	call   4d <_ZN9__gnu_cxx13new_allocatorIiE8allocateEmPKv+0x4d>
	    std::__throw_bad_alloc();
  4d:	e8 00 00 00 00       	call   52 <_ZN9__gnu_cxx13new_allocatorIiE8allocateEmPKv+0x52>
	return static_cast<_Tp*>(::operator new(__n * sizeof(_Tp)));
  52:	48 8b 45 f0          	mov    -0x10(%rbp),%rax
  56:	48 c1 e0 02          	shl    $0x2,%rax
  5a:	48 89 c7             	mov    %rax,%rdi
  5d:	e8 00 00 00 00       	call   62 <_ZN9__gnu_cxx13new_allocatorIiE8allocateEmPKv+0x62>
  62:	90                   	nop
      }
  63:	c9                   	leave  
  64:	c3                   	ret    

Disassembly of section .text._ZSt10_ConstructIiJEEvPT_DpOT0_:

0000000000000000 <_ZSt10_ConstructIiJEEvPT_DpOT0_>:
   */
#if __cplusplus >= 201103L
  template<typename _Tp, typename... _Args>
    _GLIBCXX20_CONSTEXPR
    inline void
    _Construct(_Tp* __p, _Args&&... __args)
   0:	f3 0f 1e fa          	endbr64 
   4:	55                   	push   %rbp
   5:	48 89 e5             	mov    %rsp,%rbp
   8:	48 83 ec 10          	sub    $0x10,%rsp
   c:	48 89 7d f8          	mov    %rdi,-0x8(%rbp)
	  // Allow std::_Construct to be used in constant expressions.
	  std::construct_at(__p, std::forward<_Args>(__args)...);
	  return;
	}
#endif
      ::new(static_cast<void*>(__p)) _Tp(std::forward<_Args>(__args)...);
  10:	48 8b 45 f8          	mov    -0x8(%rbp),%rax
  14:	48 89 c6             	mov    %rax,%rsi
  17:	bf 04 00 00 00       	mov    $0x4,%edi
  1c:	e8 00 00 00 00       	call   21 <_ZSt10_ConstructIiJEEvPT_DpOT0_+0x21>
  21:	c7 00 00 00 00 00    	movl   $0x0,(%rax)
    }
  27:	90                   	nop
  28:	c9                   	leave  
  29:	c3                   	ret    

Disassembly of section .text._ZSt6fill_nIPimiET_S1_T0_RKT1_:

0000000000000000 <_ZSt6fill_nIPimiET_S1_T0_RKT1_>:
  // DR 865. More algorithms that throw away information
  // DR 426. search_n(), fill_n(), and generate_n() with negative n
  template<typename _OI, typename _Size, typename _Tp>
    _GLIBCXX20_CONSTEXPR
    inline _OI
    fill_n(_OI __first, _Size __n, const _Tp& __value)
   0:	f3 0f 1e fa          	endbr64 
   4:	55                   	push   %rbp
   5:	48 89 e5             	mov    %rsp,%rbp
   8:	48 83 ec 20          	sub    $0x20,%rsp
   c:	48 89 7d f8          	mov    %rdi,-0x8(%rbp)
  10:	48 89 75 f0          	mov    %rsi,-0x10(%rbp)
  14:	48 89 55 e8          	mov    %rdx,-0x18(%rbp)
    {
      // concept requirements
      __glibcxx_function_requires(_OutputIteratorConcept<_OI, _Tp>)

      return std::__fill_n_a(__first, std::__size_to_integer(__n), __value,
			       std::__iterator_category(__first));
  18:	48 8d 45 f8          	lea    -0x8(%rbp),%rax
  1c:	48 89 c7             	mov    %rax,%rdi
  1f:	e8 00 00 00 00       	call   24 <_ZSt6fill_nIPimiET_S1_T0_RKT1_+0x24>
      return std::__fill_n_a(__first, std::__size_to_integer(__n), __value,
  24:	48 8b 45 f0          	mov    -0x10(%rbp),%rax
  28:	48 89 c7             	mov    %rax,%rdi
  2b:	e8 00 00 00 00       	call   30 <_ZSt6fill_nIPimiET_S1_T0_RKT1_+0x30>
  30:	48 89 c1             	mov    %rax,%rcx
  33:	48 8b 45 f8          	mov    -0x8(%rbp),%rax
  37:	48 8b 55 e8          	mov    -0x18(%rbp),%rdx
  3b:	48 89 ce             	mov    %rcx,%rsi
  3e:	48 89 c7             	mov    %rax,%rdi
  41:	e8 00 00 00 00       	call   46 <_ZSt6fill_nIPimiET_S1_T0_RKT1_+0x46>
    }
  46:	c9                   	leave  
  47:	c3                   	ret    

Disassembly of section .text._ZSt19__iterator_categoryIPiENSt15iterator_traitsIT_E17iterator_categoryERKS2_:

0000000000000000 <_ZSt19__iterator_categoryIPiENSt15iterator_traitsIT_E17iterator_categoryERKS2_>:
    __iterator_category(const _Iter&)
   0:	f3 0f 1e fa          	endbr64 
   4:	55                   	push   %rbp
   5:	48 89 e5             	mov    %rsp,%rbp
   8:	48 89 7d f8          	mov    %rdi,-0x8(%rbp)
    { return typename iterator_traits<_Iter>::iterator_category(); }
   c:	5d                   	pop    %rbp
   d:	c3                   	ret    

Disassembly of section .text._ZSt10__fill_n_aIPimiET_S1_T0_RKT1_St26random_access_iterator_tag:

0000000000000000 <_ZSt10__fill_n_aIPimiET_S1_T0_RKT1_St26random_access_iterator_tag>:
    __fill_n_a(_OutputIterator __first, _Size __n, const _Tp& __value,
   0:	f3 0f 1e fa          	endbr64 
   4:	55                   	push   %rbp
   5:	48 89 e5             	mov    %rsp,%rbp
   8:	48 83 ec 20          	sub    $0x20,%rsp
   c:	48 89 7d f8          	mov    %rdi,-0x8(%rbp)
  10:	48 89 75 f0          	mov    %rsi,-0x10(%rbp)
  14:	48 89 55 e8          	mov    %rdx,-0x18(%rbp)
      if (__n <= 0)
  18:	48 83 7d f0 00       	cmpq   $0x0,-0x10(%rbp)
  1d:	75 06                	jne    25 <_ZSt10__fill_n_aIPimiET_S1_T0_RKT1_St26random_access_iterator_tag+0x25>
	return __first;
  1f:	48 8b 45 f8          	mov    -0x8(%rbp),%rax
  23:	eb 3a                	jmp    5f <_ZSt10__fill_n_aIPimiET_S1_T0_RKT1_St26random_access_iterator_tag+0x5f>
      std::__fill_a(__first, __first + __n, __value);
  25:	48 8b 45 f0          	mov    -0x10(%rbp),%rax
  29:	48 8d 14 85 00 00 00 	lea    0x0(,%rax,4),%rdx
  30:	00 
  31:	48 8b 45 f8          	mov    -0x8(%rbp),%rax
  35:	48 8d 0c 02          	lea    (%rdx,%rax,1),%rcx
  39:	48 8b 55 e8          	mov    -0x18(%rbp),%rdx
  3d:	48 8b 45 f8          	mov    -0x8(%rbp),%rax
  41:	48 89 ce             	mov    %rcx,%rsi
  44:	48 89 c7             	mov    %rax,%rdi
  47:	e8 00 00 00 00       	call   4c <_ZSt10__fill_n_aIPimiET_S1_T0_RKT1_St26random_access_iterator_tag+0x4c>
      return __first + __n;
  4c:	48 8b 45 f0          	mov    -0x10(%rbp),%rax
  50:	48 8d 14 85 00 00 00 	lea    0x0(,%rax,4),%rdx
  57:	00 
  58:	48 8b 45 f8          	mov    -0x8(%rbp),%rax
  5c:	48 01 d0             	add    %rdx,%rax
    }
  5f:	c9                   	leave  
  60:	c3                   	ret    

Disassembly of section .text._ZSt8__fill_aIPiiEvT_S1_RKT0_:

0000000000000000 <_ZSt8__fill_aIPiiEvT_S1_RKT0_>:
    __fill_a(_FIte __first, _FIte __last, const _Tp& __value)
   0:	f3 0f 1e fa          	endbr64 
   4:	55                   	push   %rbp
   5:	48 89 e5             	mov    %rsp,%rbp
   8:	48 83 ec 20          	sub    $0x20,%rsp
   c:	48 89 7d f8          	mov    %rdi,-0x8(%rbp)
  10:	48 89 75 f0          	mov    %rsi,-0x10(%rbp)
  14:	48 89 55 e8          	mov    %rdx,-0x18(%rbp)
    { std::__fill_a1(__first, __last, __value); }
  18:	48 8b 55 e8          	mov    -0x18(%rbp),%rdx
  1c:	48 8b 4d f0          	mov    -0x10(%rbp),%rcx
  20:	48 8b 45 f8          	mov    -0x8(%rbp),%rax
  24:	48 89 ce             	mov    %rcx,%rsi
  27:	48 89 c7             	mov    %rax,%rdi
  2a:	e8 00 00 00 00       	call   2f <_ZSt8__fill_aIPiiEvT_S1_RKT0_+0x2f>
  2f:	90                   	nop
  30:	c9                   	leave  
  31:	c3                   	ret    

Disassembly of section .text._ZSt9__fill_a1IPiiEN9__gnu_cxx11__enable_ifIXsrSt11__is_scalarIT0_E7__valueEvE6__typeET_S8_RKS4_:

0000000000000000 <_ZSt9__fill_a1IPiiEN9__gnu_cxx11__enable_ifIXsrSt11__is_scalarIT0_E7__valueEvE6__typeET_S8_RKS4_>:
    __fill_a1(_ForwardIterator __first, _ForwardIterator __last,
   0:	f3 0f 1e fa          	endbr64 
   4:	55                   	push   %rbp
   5:	48 89 e5             	mov    %rsp,%rbp
   8:	48 89 7d e8          	mov    %rdi,-0x18(%rbp)
   c:	48 89 75 e0          	mov    %rsi,-0x20(%rbp)
  10:	48 89 55 d8          	mov    %rdx,-0x28(%rbp)
      const _Tp __tmp = __value;
  14:	48 8b 45 d8          	mov    -0x28(%rbp),%rax
  18:	8b 00                	mov    (%rax),%eax
  1a:	89 45 fc             	mov    %eax,-0x4(%rbp)
      for (; __first != __last; ++__first)
  1d:	eb 0e                	jmp    2d <_ZSt9__fill_a1IPiiEN9__gnu_cxx11__enable_ifIXsrSt11__is_scalarIT0_E7__valueEvE6__typeET_S8_RKS4_+0x2d>
	*__first = __tmp;
  1f:	48 8b 45 e8          	mov    -0x18(%rbp),%rax
  23:	8b 55 fc             	mov    -0x4(%rbp),%edx
  26:	89 10                	mov    %edx,(%rax)
      for (; __first != __last; ++__first)
  28:	48 83 45 e8 04       	addq   $0x4,-0x18(%rbp)
  2d:	48 8b 45 e8          	mov    -0x18(%rbp),%rax
  31:	48 3b 45 e0          	cmp    -0x20(%rbp),%rax
  35:	75 e8                	jne    1f <_ZSt9__fill_a1IPiiEN9__gnu_cxx11__enable_ifIXsrSt11__is_scalarIT0_E7__valueEvE6__typeET_S8_RKS4_+0x1f>
    }
  37:	90                   	nop
  38:	90                   	nop
  39:	5d                   	pop    %rbp
  3a:	c3                   	ret    
Contents of the .debug_info section (loaded from arrays.o):

  Compilation Unit @ offset 0x0:
   Length:        0x9cad (32-bit)
   Version:       5
   Unit Type:     DW_UT_compile (1)
   Abbrev Offset: 0x0
   Pointer Size:  8
 <0><c>: Abbrev Number: 131 (DW_TAG_compile_unit)
    <e>   DW_AT_producer    : (indirect string, offset: 0x3f98): GNU C++17 11.3.0 -mtune=generic -march=x86-64 -g -fasynchronous-unwind-tables -fstack-protector-strong -fstack-clash-protection -fcf-protection
    <12>   DW_AT_language    : 33	(C++14)
    <13>   DW_AT_name        : (indirect line string, offset: 0x1b): arrays.cpp
    <17>   DW_AT_comp_dir    : (indirect line string, offset: 0x0): /home/user/prog/cpp/arrays
    <1b>   DW_AT_ranges      : 0xc
    <1f>   DW_AT_low_pc      : 0x0
    <27>   DW_AT_stmt_list   : 0x0
 <1><2b>: Abbrev Number: 31 (DW_TAG_base_type)
    <2c>   DW_AT_byte_size   : 32
    <2d>   DW_AT_encoding    : 3	(complex float)
    <2e>   DW_AT_name        : (indirect string, offset: 0x9fa9): __unknown__
 <1><32>: Abbrev Number: 31 (DW_TAG_base_type)
    <33>   DW_AT_byte_size   : 16
    <34>   DW_AT_encoding    : 4	(float)
    <35>   DW_AT_name        : (indirect string, offset: 0x3ee9): __float128
 <1><39>: Abbrev Number: 31 (DW_TAG_base_type)
    <3a>   DW_AT_byte_size   : 4
    <3b>   DW_AT_encoding    : 4	(float)
    <3c>   DW_AT_name        : (indirect string, offset: 0x5404): float
 <1><40>: Abbrev Number: 31 (DW_TAG_base_type)
    <41>   DW_AT_byte_size   : 8
    <42>   DW_AT_encoding    : 4	(float)
    <43>   DW_AT_name        : (indirect string, offset: 0x2d13): double
 <1><47>: Abbrev Number: 31 (DW_TAG_base_type)
    <48>   DW_AT_byte_size   : 16
    <49>   DW_AT_encoding    : 4	(float)
    <4a>   DW_AT_name        : (indirect string, offset: 0x1119): long double
 <1><4e>: Abbrev Number: 5 (DW_TAG_typedef)
    <4f>   DW_AT_name        : (indirect string, offset: 0x1a1c): size_t
    <53>   DW_AT_decl_file   : 23
    <54>   DW_AT_decl_line   : 209
    <55>   DW_AT_decl_column : 23
    <56>   DW_AT_type        : <0x5a>
 <1><5a>: Abbrev Number: 31 (DW_TAG_base_type)
    <5b>   DW_AT_byte_size   : 8
    <5c>   DW_AT_encoding    : 7	(unsigned)
    <5d>   DW_AT_name        : (indirect string, offset: 0x25e): long unsigned int
 <1><61>: Abbrev Number: 8 (DW_TAG_const_type)
    <62>   DW_AT_type        : <0x5a>
 <1><66>: Abbrev Number: 132 (DW_TAG_structure_type)
    <68>   DW_AT_name        : (indirect string, offset: 0xa95d): typedef __va_list_tag __va_list_tag
    <6c>   DW_AT_byte_size   : 24
    <6d>   DW_AT_decl_file   : 22
    <6e>   DW_AT_decl_line   : 0
    <6f>   DW_AT_sibling     : <0x9c>
 <2><73>: Abbrev Number: 75 (DW_TAG_member)
    <74>   DW_AT_name        : (indirect string, offset: 0xaed3): gp_offset
    <78>   DW_AT_decl_file   : 22
    <78>   DW_AT_decl_line   : 0
    <78>   DW_AT_type        : <0x9c>
    <7c>   DW_AT_data_member_location: 0
 <2><7d>: Abbrev Number: 75 (DW_TAG_member)
    <7e>   DW_AT_name        : (indirect string, offset: 0x60ab): fp_offset
    <82>   DW_AT_decl_file   : 22
    <82>   DW_AT_decl_line   : 0
    <82>   DW_AT_type        : <0x9c>
    <86>   DW_AT_data_member_location: 4
 <2><87>: Abbrev Number: 75 (DW_TAG_member)
    <88>   DW_AT_name        : (indirect string, offset: 0xaaa0): overflow_arg_area
    <8c>   DW_AT_decl_file   : 22
    <8c>   DW_AT_decl_line   : 0
    <8c>   DW_AT_type        : <0xa3>
    <90>   DW_AT_data_member_location: 8
 <2><91>: Abbrev Number: 75 (DW_TAG_member)
    <92>   DW_AT_name        : (indirect string, offset: 0xaab2): reg_save_area
    <96>   DW_AT_decl_file   : 22
    <96>   DW_AT_decl_line   : 0
    <96>   DW_AT_type        : <0xa3>
    <9a>   DW_AT_data_member_location: 16
 <2><9b>: Abbrev Number: 0
 <1><9c>: Abbrev Number: 31 (DW_TAG_base_type)
    <9d>   DW_AT_byte_size   : 4
    <9e>   DW_AT_encoding    : 7	(unsigned)
    <9f>   DW_AT_name        : (indirect string, offset: 0xb310): unsigned int
 <1><a3>: Abbrev Number: 133 (DW_TAG_pointer_type)
    <a5>   DW_AT_byte_size   : 8
 <1><a6>: Abbrev Number: 5 (DW_TAG_typedef)
    <a7>   DW_AT_name        : (indirect string, offset: 0xb23b): wint_t
    <ab>   DW_AT_decl_file   : 24
    <ac>   DW_AT_decl_line   : 20
    <ad>   DW_AT_decl_column : 23
    <ae>   DW_AT_type        : <0x9c>
 <1><b2>: Abbrev Number: 76 (DW_TAG_structure_type)
    <b3>   DW_AT_byte_size   : 8
    <b4>   DW_AT_decl_file   : 25
    <b5>   DW_AT_decl_line   : 14
    <b6>   DW_AT_decl_column : 1
    <b7>   DW_AT_linkage_name: (indirect string, offset: 0x2ef9): 11__mbstate_t
    <bb>   DW_AT_sibling     : <0xfc>
 <2><bf>: Abbrev Number: 101 (DW_TAG_union_type)
    <c0>   DW_AT_byte_size   : 4
    <c1>   DW_AT_decl_file   : 25
    <c2>   DW_AT_decl_line   : 17
    <c3>   DW_AT_decl_column : 3
    <c4>   DW_AT_sibling     : <0xe1>
 <3><c8>: Abbrev Number: 77 (DW_TAG_member)
    <c9>   DW_AT_name        : (indirect string, offset: 0x5064): __wch
    <cd>   DW_AT_decl_file   : 25
    <ce>   DW_AT_decl_line   : 18
    <cf>   DW_AT_decl_column : 19
    <d0>   DW_AT_type        : <0x9c>
 <3><d4>: Abbrev Number: 77 (DW_TAG_member)
    <d5>   DW_AT_name        : (indirect string, offset: 0x2079): __wchb
    <d9>   DW_AT_decl_file   : 25
    <da>   DW_AT_decl_line   : 19
    <db>   DW_AT_decl_column : 10
    <dc>   DW_AT_type        : <0xfc>
 <3><e0>: Abbrev Number: 0
 <2><e1>: Abbrev Number: 6 (DW_TAG_member)
    <e2>   DW_AT_name        : (indirect string, offset: 0x545d): __count
    <e6>   DW_AT_decl_file   : 25
    <e7>   DW_AT_decl_line   : 15
    <e8>   DW_AT_decl_column : 7
    <e9>   DW_AT_type        : <0x118>
    <ed>   DW_AT_data_member_location: 0
 <2><ee>: Abbrev Number: 6 (DW_TAG_member)
    <ef>   DW_AT_name        : (indirect string, offset: 0x52d7): __value
    <f3>   DW_AT_decl_file   : 25
    <f4>   DW_AT_decl_line   : 20
    <f5>   DW_AT_decl_column : 5
    <f6>   DW_AT_type        : <0xbf>
    <fa>   DW_AT_data_member_location: 4
 <2><fb>: Abbrev Number: 0
 <1><fc>: Abbrev Number: 69 (DW_TAG_array_type)
    <fd>   DW_AT_type        : <0x10c>
    <101>   DW_AT_sibling     : <0x10c>
 <2><105>: Abbrev Number: 78 (DW_TAG_subrange_type)
    <106>   DW_AT_type        : <0x5a>
    <10a>   DW_AT_upper_bound : 3
 <2><10b>: Abbrev Number: 0
 <1><10c>: Abbrev Number: 31 (DW_TAG_base_type)
    <10d>   DW_AT_byte_size   : 1
    <10e>   DW_AT_encoding    : 6	(signed char)
    <10f>   DW_AT_name        : (indirect string, offset: 0xa25c): char
 <1><113>: Abbrev Number: 8 (DW_TAG_const_type)
    <114>   DW_AT_type        : <0x10c>
 <1><118>: Abbrev Number: 134 (DW_TAG_base_type)
    <11a>   DW_AT_byte_size   : 4
    <11b>   DW_AT_encoding    : 5	(signed)
    <11c>   DW_AT_name        : int
 <1><120>: Abbrev Number: 8 (DW_TAG_const_type)
    <121>   DW_AT_type        : <0x118>
 <1><125>: Abbrev Number: 5 (DW_TAG_typedef)
    <126>   DW_AT_name        : (indirect string, offset: 0x2eda): __mbstate_t
    <12a>   DW_AT_decl_file   : 25
    <12b>   DW_AT_decl_line   : 21
    <12c>   DW_AT_decl_column : 3
    <12d>   DW_AT_type        : <0xb2>
 <1><131>: Abbrev Number: 5 (DW_TAG_typedef)
    <132>   DW_AT_name        : (indirect string, offset: 0xb1ea): mbstate_t
    <136>   DW_AT_decl_file   : 26
    <137>   DW_AT_decl_line   : 6
    <138>   DW_AT_decl_column : 21
    <139>   DW_AT_type        : <0x125>
 <1><13d>: Abbrev Number: 8 (DW_TAG_const_type)
    <13e>   DW_AT_type        : <0x131>
 <1><142>: Abbrev Number: 5 (DW_TAG_typedef)
    <143>   DW_AT_name        : (indirect string, offset: 0x5186): __FILE
    <147>   DW_AT_decl_file   : 27
    <148>   DW_AT_decl_line   : 5
    <149>   DW_AT_decl_column : 25
    <14a>   DW_AT_type        : <0x14e>
 <1><14e>: Abbrev Number: 22 (DW_TAG_structure_type)
    <14f>   DW_AT_name        : (indirect string, offset: 0xae27): _IO_FILE
    <153>   DW_AT_byte_size   : 216
    <154>   DW_AT_decl_file   : 28
    <155>   DW_AT_decl_line   : 49
    <156>   DW_AT_decl_column : 8
    <157>   DW_AT_sibling     : <0x2d5>
 <2><15b>: Abbrev Number: 6 (DW_TAG_member)
    <15c>   DW_AT_name        : (indirect string, offset: 0x2ba4): _flags
    <160>   DW_AT_decl_file   : 28
    <161>   DW_AT_decl_line   : 51
    <162>   DW_AT_decl_column : 7
    <163>   DW_AT_type        : <0x118>
    <167>   DW_AT_data_member_location: 0
 <2><168>: Abbrev Number: 6 (DW_TAG_member)
    <169>   DW_AT_name        : (indirect string, offset: 0x3edc): _IO_read_ptr
    <16d>   DW_AT_decl_file   : 28
    <16e>   DW_AT_decl_line   : 54
    <16f>   DW_AT_decl_column : 9
    <170>   DW_AT_type        : <0x57cf>
    <174>   DW_AT_data_member_location: 8
 <2><175>: Abbrev Number: 6 (DW_TAG_member)
    <176>   DW_AT_name        : (indirect string, offset: 0x3273): _IO_read_end
    <17a>   DW_AT_decl_file   : 28
    <17b>   DW_AT_decl_line   : 55
    <17c>   DW_AT_decl_column : 9
    <17d>   DW_AT_type        : <0x57cf>
    <181>   DW_AT_data_member_location: 16
 <2><182>: Abbrev Number: 6 (DW_TAG_member)
    <183>   DW_AT_name        : (indirect string, offset: 0x4e04): _IO_read_base
    <187>   DW_AT_decl_file   : 28
    <188>   DW_AT_decl_line   : 56
    <189>   DW_AT_decl_column : 9
    <18a>   DW_AT_type        : <0x57cf>
    <18e>   DW_AT_data_member_location: 24
 <2><18f>: Abbrev Number: 6 (DW_TAG_member)
    <190>   DW_AT_name        : (indirect string, offset: 0x80a7): _IO_write_base
    <194>   DW_AT_decl_file   : 28
    <195>   DW_AT_decl_line   : 57
    <196>   DW_AT_decl_column : 9
    <197>   DW_AT_type        : <0x57cf>
    <19b>   DW_AT_data_member_location: 32
 <2><19c>: Abbrev Number: 6 (DW_TAG_member)
    <19d>   DW_AT_name        : (indirect string, offset: 0x40f4): _IO_write_ptr
    <1a1>   DW_AT_decl_file   : 28
    <1a2>   DW_AT_decl_line   : 58
    <1a3>   DW_AT_decl_column : 9
    <1a4>   DW_AT_type        : <0x57cf>
    <1a8>   DW_AT_data_member_location: 40
 <2><1a9>: Abbrev Number: 6 (DW_TAG_member)
    <1aa>   DW_AT_name        : (indirect string, offset: 0x343a): _IO_write_end
    <1ae>   DW_AT_decl_file   : 28
    <1af>   DW_AT_decl_line   : 59
    <1b0>   DW_AT_decl_column : 9
    <1b1>   DW_AT_type        : <0x57cf>
    <1b5>   DW_AT_data_member_location: 48
 <2><1b6>: Abbrev Number: 6 (DW_TAG_member)
    <1b7>   DW_AT_name        : (indirect string, offset: 0x35be): _IO_buf_base
    <1bb>   DW_AT_decl_file   : 28
    <1bc>   DW_AT_decl_line   : 60
    <1bd>   DW_AT_decl_column : 9
    <1be>   DW_AT_type        : <0x57cf>
    <1c2>   DW_AT_data_member_location: 56
 <2><1c3>: Abbrev Number: 6 (DW_TAG_member)
    <1c4>   DW_AT_name        : (indirect string, offset: 0x4bf5): _IO_buf_end
    <1c8>   DW_AT_decl_file   : 28
    <1c9>   DW_AT_decl_line   : 61
    <1ca>   DW_AT_decl_column : 9
    <1cb>   DW_AT_type        : <0x57cf>
    <1cf>   DW_AT_data_member_location: 64
 <2><1d0>: Abbrev Number: 6 (DW_TAG_member)
    <1d1>   DW_AT_name        : (indirect string, offset: 0x3350): _IO_save_base
    <1d5>   DW_AT_decl_file   : 28
    <1d6>   DW_AT_decl_line   : 64
    <1d7>   DW_AT_decl_column : 9
    <1d8>   DW_AT_type        : <0x57cf>
    <1dc>   DW_AT_data_member_location: 72
 <2><1dd>: Abbrev Number: 6 (DW_TAG_member)
    <1de>   DW_AT_name        : (indirect string, offset: 0x2d9c): _IO_backup_base
    <1e2>   DW_AT_decl_file   : 28
    <1e3>   DW_AT_decl_line   : 65
    <1e4>   DW_AT_decl_column : 9
    <1e5>   DW_AT_type        : <0x57cf>
    <1e9>   DW_AT_data_member_location: 80
 <2><1ea>: Abbrev Number: 6 (DW_TAG_member)
    <1eb>   DW_AT_name        : (indirect string, offset: 0x6c20): _IO_save_end
    <1ef>   DW_AT_decl_file   : 28
    <1f0>   DW_AT_decl_line   : 66
    <1f1>   DW_AT_decl_column : 9
    <1f2>   DW_AT_type        : <0x57cf>
    <1f6>   DW_AT_data_member_location: 88
 <2><1f7>: Abbrev Number: 6 (DW_TAG_member)
    <1f8>   DW_AT_name        : (indirect string, offset: 0x78f7): _markers
    <1fc>   DW_AT_decl_file   : 28
    <1fd>   DW_AT_decl_line   : 68
    <1fe>   DW_AT_decl_column : 22
    <1ff>   DW_AT_type        : <0x7515>
    <203>   DW_AT_data_member_location: 96
 <2><204>: Abbrev Number: 6 (DW_TAG_member)
    <205>   DW_AT_name        : (indirect string, offset: 0xa956): _chain
    <209>   DW_AT_decl_file   : 28
    <20a>   DW_AT_decl_line   : 70
    <20b>   DW_AT_decl_column : 20
    <20c>   DW_AT_type        : <0x751a>
    <210>   DW_AT_data_member_location: 104
 <2><211>: Abbrev Number: 6 (DW_TAG_member)
    <212>   DW_AT_name        : (indirect string, offset: 0x7900): _fileno
    <216>   DW_AT_decl_file   : 28
    <217>   DW_AT_decl_line   : 72
    <218>   DW_AT_decl_column : 7
    <219>   DW_AT_type        : <0x118>
    <21d>   DW_AT_data_member_location: 112
 <2><21e>: Abbrev Number: 6 (DW_TAG_member)
    <21f>   DW_AT_name        : (indirect string, offset: 0x3f90): _flags2
    <223>   DW_AT_decl_file   : 28
    <224>   DW_AT_decl_line   : 73
    <225>   DW_AT_decl_column : 7
    <226>   DW_AT_type        : <0x118>
    <22a>   DW_AT_data_member_location: 116
 <2><22b>: Abbrev Number: 6 (DW_TAG_member)
    <22c>   DW_AT_name        : (indirect string, offset: 0x67e2): _old_offset
    <230>   DW_AT_decl_file   : 28
    <231>   DW_AT_decl_line   : 74
    <232>   DW_AT_decl_column : 11
    <233>   DW_AT_type        : <0x6d76>
    <237>   DW_AT_data_member_location: 120
 <2><238>: Abbrev Number: 6 (DW_TAG_member)
    <239>   DW_AT_name        : (indirect string, offset: 0x88b8): _cur_column
    <23d>   DW_AT_decl_file   : 28
    <23e>   DW_AT_decl_line   : 77
    <23f>   DW_AT_decl_column : 18
    <240>   DW_AT_type        : <0x2e1>
    <244>   DW_AT_data_member_location: 128
 <2><245>: Abbrev Number: 6 (DW_TAG_member)
    <246>   DW_AT_name        : (indirect string, offset: 0x25a5): _vtable_offset
    <24a>   DW_AT_decl_file   : 28
    <24b>   DW_AT_decl_line   : 78
    <24c>   DW_AT_decl_column : 15
    <24d>   DW_AT_type        : <0x6c10>
    <251>   DW_AT_data_member_location: 130
 <2><252>: Abbrev Number: 6 (DW_TAG_member)
    <253>   DW_AT_name        : (indirect string, offset: 0x5348): _shortbuf
    <257>   DW_AT_decl_file   : 28
    <258>   DW_AT_decl_line   : 79
    <259>   DW_AT_decl_column : 8
    <25a>   DW_AT_type        : <0x751f>
    <25e>   DW_AT_data_member_location: 131
 <2><25f>: Abbrev Number: 6 (DW_TAG_member)
    <260>   DW_AT_name        : (indirect string, offset: 0x4915): _lock
    <264>   DW_AT_decl_file   : 28
    <265>   DW_AT_decl_line   : 81
    <266>   DW_AT_decl_column : 15
    <267>   DW_AT_type        : <0x752f>
    <26b>   DW_AT_data_member_location: 136
 <2><26c>: Abbrev Number: 6 (DW_TAG_member)
    <26d>   DW_AT_name        : (indirect string, offset: 0x3624): _offset
    <271>   DW_AT_decl_file   : 28
    <272>   DW_AT_decl_line   : 89
    <273>   DW_AT_decl_column : 13
    <274>   DW_AT_type        : <0x6d82>
    <278>   DW_AT_data_member_location: 144
 <2><279>: Abbrev Number: 6 (DW_TAG_member)
    <27a>   DW_AT_name        : (indirect string, offset: 0x40ab): _codecvt
    <27e>   DW_AT_decl_file   : 28
    <27f>   DW_AT_decl_line   : 91
    <280>   DW_AT_decl_column : 23
    <281>   DW_AT_type        : <0x7539>
    <285>   DW_AT_data_member_location: 152
 <2><286>: Abbrev Number: 6 (DW_TAG_member)
    <287>   DW_AT_name        : (indirect string, offset: 0x621d): _wide_data
    <28b>   DW_AT_decl_file   : 28
    <28c>   DW_AT_decl_line   : 92
    <28d>   DW_AT_decl_column : 25
    <28e>   DW_AT_type        : <0x7543>
    <292>   DW_AT_data_member_location: 160
 <2><293>: Abbrev Number: 6 (DW_TAG_member)
    <294>   DW_AT_name        : (indirect string, offset: 0xad24): _freeres_list
    <298>   DW_AT_decl_file   : 28
    <299>   DW_AT_decl_line   : 93
    <29a>   DW_AT_decl_column : 20
    <29b>   DW_AT_type        : <0x751a>
    <29f>   DW_AT_data_member_location: 168
 <2><2a0>: Abbrev Number: 6 (DW_TAG_member)
    <2a1>   DW_AT_name        : (indirect string, offset: 0x33f): _freeres_buf
    <2a5>   DW_AT_decl_file   : 28
    <2a6>   DW_AT_decl_line   : 94
    <2a7>   DW_AT_decl_column : 9
    <2a8>   DW_AT_type        : <0xa3>
    <2ac>   DW_AT_data_member_location: 176
 <2><2ad>: Abbrev Number: 6 (DW_TAG_member)
    <2ae>   DW_AT_name        : (indirect string, offset: 0x20e): __pad5
    <2b2>   DW_AT_decl_file   : 28
    <2b3>   DW_AT_decl_line   : 95
    <2b4>   DW_AT_decl_column : 10
    <2b5>   DW_AT_type        : <0x4e>
    <2b9>   DW_AT_data_member_location: 184
 <2><2ba>: Abbrev Number: 6 (DW_TAG_member)
    <2bb>   DW_AT_name        : (indirect string, offset: 0x1ce9): _mode
    <2bf>   DW_AT_decl_file   : 28
    <2c0>   DW_AT_decl_line   : 96
    <2c1>   DW_AT_decl_column : 7
    <2c2>   DW_AT_type        : <0x118>
    <2c6>   DW_AT_data_member_location: 192
 <2><2c7>: Abbrev Number: 6 (DW_TAG_member)
    <2c8>   DW_AT_name        : (indirect string, offset: 0x19a7): _unused2
    <2cc>   DW_AT_decl_file   : 28
    <2cd>   DW_AT_decl_line   : 98
    <2ce>   DW_AT_decl_column : 8
    <2cf>   DW_AT_type        : <0x7548>
    <2d3>   DW_AT_data_member_location: 196
 <2><2d4>: Abbrev Number: 0
 <1><2d5>: Abbrev Number: 5 (DW_TAG_typedef)
    <2d6>   DW_AT_name        : (indirect string, offset: 0xa089): FILE
    <2da>   DW_AT_decl_file   : 29
    <2db>   DW_AT_decl_line   : 7
    <2dc>   DW_AT_decl_column : 25
    <2dd>   DW_AT_type        : <0x14e>
 <1><2e1>: Abbrev Number: 31 (DW_TAG_base_type)
    <2e2>   DW_AT_byte_size   : 2
    <2e3>   DW_AT_encoding    : 7	(unsigned)
    <2e4>   DW_AT_name        : (indirect string, offset: 0x4c01): short unsigned int
 <1><2e8>: Abbrev Number: 7 (DW_TAG_pointer_type)
    <2e9>   DW_AT_byte_size   : 8
    <2e9>   DW_AT_type        : <0x120>
 <1><2ed>: Abbrev Number: 8 (DW_TAG_const_type)
    <2ee>   DW_AT_type        : <0x2e8>
 <1><2f2>: Abbrev Number: 7 (DW_TAG_pointer_type)
    <2f3>   DW_AT_byte_size   : 8
    <2f3>   DW_AT_type        : <0x113>
 <1><2f7>: Abbrev Number: 8 (DW_TAG_const_type)
    <2f8>   DW_AT_type        : <0x2f2>
 <1><2fc>: Abbrev Number: 135 (DW_TAG_namespace)
    <2fe>   DW_AT_name        : std
    <302>   DW_AT_decl_file   : 32
    <303>   DW_AT_decl_line   : 278
    <305>   DW_AT_decl_column : 11
    <306>   DW_AT_sibling     : <0x5497>
 <2><30a>: Abbrev Number: 4 (DW_TAG_imported_declaration)
    <30b>   DW_AT_decl_file   : 30
    <30c>   DW_AT_decl_line   : 64
    <30d>   DW_AT_decl_column : 11
    <30e>   DW_AT_import      : <0x131>	[Abbrev Number: 5 (DW_TAG_typedef)]
 <2><312>: Abbrev Number: 4 (DW_TAG_imported_declaration)
    <313>   DW_AT_decl_file   : 30
    <314>   DW_AT_decl_line   : 141
    <315>   DW_AT_decl_column : 11
    <316>   DW_AT_import      : <0xa6>	[Abbrev Number: 5 (DW_TAG_typedef)]
 <2><31a>: Abbrev Number: 4 (DW_TAG_imported_declaration)
    <31b>   DW_AT_decl_file   : 30
    <31c>   DW_AT_decl_line   : 143
    <31d>   DW_AT_decl_column : 11
    <31e>   DW_AT_import      : <0x5497>	[Abbrev Number: 10 (DW_TAG_subprogram)]
 <2><322>: Abbrev Number: 4 (DW_TAG_imported_declaration)
    <323>   DW_AT_decl_file   : 30
    <324>   DW_AT_decl_line   : 144
    <325>   DW_AT_decl_column : 11
    <326>   DW_AT_import      : <0x54ae>	[Abbrev Number: 10 (DW_TAG_subprogram)]
 <2><32a>: Abbrev Number: 4 (DW_TAG_imported_declaration)
    <32b>   DW_AT_decl_file   : 30
    <32c>   DW_AT_decl_line   : 145
    <32d>   DW_AT_decl_column : 11
    <32e>   DW_AT_import      : <0x54ca>	[Abbrev Number: 10 (DW_TAG_subprogram)]
 <2><332>: Abbrev Number: 4 (DW_TAG_imported_declaration)
    <333>   DW_AT_decl_file   : 30
    <334>   DW_AT_decl_line   : 146
    <335>   DW_AT_decl_column : 11
    <336>   DW_AT_import      : <0x54fc>	[Abbrev Number: 10 (DW_TAG_subprogram)]
 <2><33a>: Abbrev Number: 4 (DW_TAG_imported_declaration)
    <33b>   DW_AT_decl_file   : 30
    <33c>   DW_AT_decl_line   : 147
    <33d>   DW_AT_decl_column : 11
    <33e>   DW_AT_import      : <0x5518>	[Abbrev Number: 10 (DW_TAG_subprogram)]
 <2><342>: Abbrev Number: 4 (DW_TAG_imported_declaration)
    <343>   DW_AT_decl_file   : 30
    <344>   DW_AT_decl_line   : 148
    <345>   DW_AT_decl_column : 11
    <346>   DW_AT_import      : <0x5539>	[Abbrev Number: 10 (DW_TAG_subprogram)]
 <2><34a>: Abbrev Number: 4 (DW_TAG_imported_declaration)
    <34b>   DW_AT_decl_file   : 30
    <34c>   DW_AT_decl_line   : 149
    <34d>   DW_AT_decl_column : 11
    <34e>   DW_AT_import      : <0x5555>	[Abbrev Number: 10 (DW_TAG_subprogram)]
 <2><352>: Abbrev Number: 4 (DW_TAG_imported_declaration)
    <353>   DW_AT_decl_file   : 30
    <354>   DW_AT_decl_line   : 150
    <355>   DW_AT_decl_column : 11
    <356>   DW_AT_import      : <0x5572>	[Abbrev Number: 16 (DW_TAG_subprogram)]
 <2><35a>: Abbrev Number: 4 (DW_TAG_imported_declaration)
    <35b>   DW_AT_decl_file   : 30
    <35c>   DW_AT_decl_line   : 151
    <35d>   DW_AT_decl_column : 11
    <35e>   DW_AT_import      : <0x5593>	[Abbrev Number: 10 (DW_TAG_subprogram)]
 <2><362>: Abbrev Number: 4 (DW_TAG_imported_declaration)
    <363>   DW_AT_decl_file   : 30
    <364>   DW_AT_decl_line   : 152
    <365>   DW_AT_decl_column : 11
    <366>   DW_AT_import      : <0x55aa>	[Abbrev Number: 94 (DW_TAG_subprogram)]
 <2><36a>: Abbrev Number: 4 (DW_TAG_imported_declaration)
    <36b>   DW_AT_decl_file   : 30
    <36c>   DW_AT_decl_line   : 153
    <36d>   DW_AT_decl_column : 11
    <36e>   DW_AT_import      : <0x55b7>	[Abbrev Number: 10 (DW_TAG_subprogram)]
 <2><372>: Abbrev Number: 4 (DW_TAG_imported_declaration)
    <373>   DW_AT_decl_file   : 30
    <374>   DW_AT_decl_line   : 154
    <375>   DW_AT_decl_column : 11
    <376>   DW_AT_import      : <0x55dd>	[Abbrev Number: 10 (DW_TAG_subprogram)]
 <2><37a>: Abbrev Number: 4 (DW_TAG_imported_declaration)
    <37b>   DW_AT_decl_file   : 30
    <37c>   DW_AT_decl_line   : 155
    <37d>   DW_AT_decl_column : 11
    <37e>   DW_AT_import      : <0x5603>	[Abbrev Number: 10 (DW_TAG_subprogram)]
 <2><382>: Abbrev Number: 4 (DW_TAG_imported_declaration)
    <383>   DW_AT_decl_file   : 30
    <384>   DW_AT_decl_line   : 156
    <385>   DW_AT_decl_column : 11
    <386>   DW_AT_import      : <0x561f>	[Abbrev Number: 10 (DW_TAG_subprogram)]
 <2><38a>: Abbrev Number: 4 (DW_TAG_imported_declaration)
    <38b>   DW_AT_decl_file   : 30
    <38c>   DW_AT_decl_line   : 157
    <38d>   DW_AT_decl_column : 11
    <38e>   DW_AT_import      : <0x564a>	[Abbrev Number: 10 (DW_TAG_subprogram)]
 <2><392>: Abbrev Number: 4 (DW_TAG_imported_declaration)
    <393>   DW_AT_decl_file   : 30
    <394>   DW_AT_decl_line   : 158
    <395>   DW_AT_decl_column : 11
    <396>   DW_AT_import      : <0x5666>	[Abbrev Number: 10 (DW_TAG_subprogram)]
 <2><39a>: Abbrev Number: 4 (DW_TAG_imported_declaration)
    <39b>   DW_AT_decl_file   : 30
    <39c>   DW_AT_decl_line   : 160
    <39d>   DW_AT_decl_column : 11
    <39e>   DW_AT_import      : <0x567d>	[Abbrev Number: 10 (DW_TAG_subprogram)]
 <2><3a2>: Abbrev Number: 4 (DW_TAG_imported_declaration)
    <3a3>   DW_AT_decl_file   : 30
    <3a4>   DW_AT_decl_line   : 162
    <3a5>   DW_AT_decl_column : 11
    <3a6>   DW_AT_import      : <0x569f>	[Abbrev Number: 16 (DW_TAG_subprogram)]
 <2><3aa>: Abbrev Number: 4 (DW_TAG_imported_declaration)
    <3ab>   DW_AT_decl_file   : 30
    <3ac>   DW_AT_decl_line   : 163
    <3ad>   DW_AT_decl_column : 11
    <3ae>   DW_AT_import      : <0x56c0>	[Abbrev Number: 10 (DW_TAG_subprogram)]
 <2><3b2>: Abbrev Number: 4 (DW_TAG_imported_declaration)
    <3b3>   DW_AT_decl_file   : 30
    <3b4>   DW_AT_decl_line   : 164
    <3b5>   DW_AT_decl_column : 11
    <3b6>   DW_AT_import      : <0x56dc>	[Abbrev Number: 10 (DW_TAG_subprogram)]
 <2><3ba>: Abbrev Number: 4 (DW_TAG_imported_declaration)
    <3bb>   DW_AT_decl_file   : 30
    <3bc>   DW_AT_decl_line   : 166
    <3bd>   DW_AT_decl_column : 11
    <3be>   DW_AT_import      : <0x5702>	[Abbrev Number: 16 (DW_TAG_subprogram)]
 <2><3c2>: Abbrev Number: 4 (DW_TAG_imported_declaration)
    <3c3>   DW_AT_decl_file   : 30
    <3c4>   DW_AT_decl_line   : 169
    <3c5>   DW_AT_decl_column : 11
    <3c6>   DW_AT_import      : <0x5727>	[Abbrev Number: 10 (DW_TAG_subprogram)]
 <2><3ca>: Abbrev Number: 4 (DW_TAG_imported_declaration)
    <3cb>   DW_AT_decl_file   : 30
    <3cc>   DW_AT_decl_line   : 172
    <3cd>   DW_AT_decl_column : 11
    <3ce>   DW_AT_import      : <0x574d>	[Abbrev Number: 16 (DW_TAG_subprogram)]
 <2><3d2>: Abbrev Number: 4 (DW_TAG_imported_declaration)
    <3d3>   DW_AT_decl_file   : 30
    <3d4>   DW_AT_decl_line   : 174
    <3d5>   DW_AT_decl_column : 11
    <3d6>   DW_AT_import      : <0x5772>	[Abbrev Number: 10 (DW_TAG_subprogram)]
 <2><3da>: Abbrev Number: 4 (DW_TAG_imported_declaration)
    <3db>   DW_AT_decl_file   : 30
    <3dc>   DW_AT_decl_line   : 176
    <3dd>   DW_AT_decl_column : 11
    <3de>   DW_AT_import      : <0x578e>	[Abbrev Number: 16 (DW_TAG_subprogram)]
 <2><3e2>: Abbrev Number: 4 (DW_TAG_imported_declaration)
    <3e3>   DW_AT_decl_file   : 30
    <3e4>   DW_AT_decl_line   : 178
    <3e5>   DW_AT_decl_column : 11
    <3e6>   DW_AT_import      : <0x57ae>	[Abbrev Number: 10 (DW_TAG_subprogram)]
 <2><3ea>: Abbrev Number: 4 (DW_TAG_imported_declaration)
    <3eb>   DW_AT_decl_file   : 30
    <3ec>   DW_AT_decl_line   : 179
    <3ed>   DW_AT_decl_column : 11
    <3ee>   DW_AT_import      : <0x57d9>	[Abbrev Number: 14 (DW_TAG_subprogram)]
 <2><3f2>: Abbrev Number: 4 (DW_TAG_imported_declaration)
    <3f3>   DW_AT_decl_file   : 30
    <3f4>   DW_AT_decl_line   : 180
    <3f5>   DW_AT_decl_column : 11
    <3f6>   DW_AT_import      : <0x57f4>	[Abbrev Number: 14 (DW_TAG_subprogram)]
 <2><3fa>: Abbrev Number: 4 (DW_TAG_imported_declaration)
    <3fb>   DW_AT_decl_file   : 30
    <3fc>   DW_AT_decl_line   : 181
    <3fd>   DW_AT_decl_column : 11
    <3fe>   DW_AT_import      : <0x580f>	[Abbrev Number: 14 (DW_TAG_subprogram)]
 <2><402>: Abbrev Number: 4 (DW_TAG_imported_declaration)
    <403>   DW_AT_decl_file   : 30
    <404>   DW_AT_decl_line   : 182
    <405>   DW_AT_decl_column : 11
    <406>   DW_AT_import      : <0x582a>	[Abbrev Number: 14 (DW_TAG_subprogram)]
 <2><40a>: Abbrev Number: 4 (DW_TAG_imported_declaration)
    <40b>   DW_AT_decl_file   : 30
    <40c>   DW_AT_decl_line   : 183
    <40d>   DW_AT_decl_column : 11
    <40e>   DW_AT_import      : <0x5845>	[Abbrev Number: 14 (DW_TAG_subprogram)]
 <2><412>: Abbrev Number: 4 (DW_TAG_imported_declaration)
    <413>   DW_AT_decl_file   : 30
    <414>   DW_AT_decl_line   : 184
    <415>   DW_AT_decl_column : 11
    <416>   DW_AT_import      : <0x5860>	[Abbrev Number: 10 (DW_TAG_subprogram)]
 <2><41a>: Abbrev Number: 4 (DW_TAG_imported_declaration)
    <41b>   DW_AT_decl_file   : 30
    <41c>   DW_AT_decl_line   : 185
    <41d>   DW_AT_decl_column : 11
    <41e>   DW_AT_import      : <0x592d>	[Abbrev Number: 14 (DW_TAG_subprogram)]
 <2><422>: Abbrev Number: 4 (DW_TAG_imported_declaration)
    <423>   DW_AT_decl_file   : 30
    <424>   DW_AT_decl_line   : 186
    <425>   DW_AT_decl_column : 11
    <426>   DW_AT_import      : <0x5943>	[Abbrev Number: 14 (DW_TAG_subprogram)]
 <2><42a>: Abbrev Number: 4 (DW_TAG_imported_declaration)
    <42b>   DW_AT_decl_file   : 30
    <42c>   DW_AT_decl_line   : 187
    <42d>   DW_AT_decl_column : 11
    <42e>   DW_AT_import      : <0x5963>	[Abbrev Number: 14 (DW_TAG_subprogram)]
 <2><432>: Abbrev Number: 4 (DW_TAG_imported_declaration)
    <433>   DW_AT_decl_file   : 30
    <434>   DW_AT_decl_line   : 188
    <435>   DW_AT_decl_column : 11
    <436>   DW_AT_import      : <0x5983>	[Abbrev Number: 14 (DW_TAG_subprogram)]
 <2><43a>: Abbrev Number: 4 (DW_TAG_imported_declaration)
    <43b>   DW_AT_decl_file   : 30
    <43c>   DW_AT_decl_line   : 189
    <43d>   DW_AT_decl_column : 11
    <43e>   DW_AT_import      : <0x59a3>	[Abbrev Number: 10 (DW_TAG_subprogram)]
 <2><442>: Abbrev Number: 4 (DW_TAG_imported_declaration)
    <443>   DW_AT_decl_file   : 30
    <444>   DW_AT_decl_line   : 190
    <445>   DW_AT_decl_column : 11
    <446>   DW_AT_import      : <0x59ce>	[Abbrev Number: 14 (DW_TAG_subprogram)]
 <2><44a>: Abbrev Number: 4 (DW_TAG_imported_declaration)
    <44b>   DW_AT_decl_file   : 30
    <44c>   DW_AT_decl_line   : 191
    <44d>   DW_AT_decl_column : 11
    <44e>   DW_AT_import      : <0x59e9>	[Abbrev Number: 10 (DW_TAG_subprogram)]
 <2><452>: Abbrev Number: 4 (DW_TAG_imported_declaration)
    <453>   DW_AT_decl_file   : 30
    <454>   DW_AT_decl_line   : 193
    <455>   DW_AT_decl_column : 11
    <456>   DW_AT_import      : <0x5a0a>	[Abbrev Number: 10 (DW_TAG_subprogram)]
 <2><45a>: Abbrev Number: 4 (DW_TAG_imported_declaration)
    <45b>   DW_AT_decl_file   : 30
    <45c>   DW_AT_decl_line   : 195
    <45d>   DW_AT_decl_column : 11
    <45e>   DW_AT_import      : <0x5a26>	[Abbrev Number: 14 (DW_TAG_subprogram)]
 <2><462>: Abbrev Number: 4 (DW_TAG_imported_declaration)
    <463>   DW_AT_decl_file   : 30
    <464>   DW_AT_decl_line   : 196
    <465>   DW_AT_decl_column : 11
    <466>   DW_AT_import      : <0x5a46>	[Abbrev Number: 10 (DW_TAG_subprogram)]
 <2><46a>: Abbrev Number: 4 (DW_TAG_imported_declaration)
    <46b>   DW_AT_decl_file   : 30
    <46c>   DW_AT_decl_line   : 197
    <46d>   DW_AT_decl_column : 11
    <46e>   DW_AT_import      : <0x5a6e>	[Abbrev Number: 10 (DW_TAG_subprogram)]
 <2><472>: Abbrev Number: 4 (DW_TAG_imported_declaration)
    <473>   DW_AT_decl_file   : 30
    <474>   DW_AT_decl_line   : 198
    <475>   DW_AT_decl_column : 11
    <476>   DW_AT_import      : <0x5a8f>	[Abbrev Number: 14 (DW_TAG_subprogram)]
 <2><47a>: Abbrev Number: 4 (DW_TAG_imported_declaration)
    <47b>   DW_AT_decl_file   : 30
    <47c>   DW_AT_decl_line   : 199
    <47d>   DW_AT_decl_column : 11
    <47e>   DW_AT_import      : <0x5aaf>	[Abbrev Number: 10 (DW_TAG_subprogram)]
 <2><482>: Abbrev Number: 4 (DW_TAG_imported_declaration)
    <483>   DW_AT_decl_file   : 30
    <484>   DW_AT_decl_line   : 200
    <485>   DW_AT_decl_column : 11
    <486>   DW_AT_import      : <0x5ac6>	[Abbrev Number: 10 (DW_TAG_subprogram)]
 <2><48a>: Abbrev Number: 4 (DW_TAG_imported_declaration)
    <48b>   DW_AT_decl_file   : 30
    <48c>   DW_AT_decl_line   : 201
    <48d>   DW_AT_decl_column : 11
    <48e>   DW_AT_import      : <0x5ae7>	[Abbrev Number: 10 (DW_TAG_subprogram)]
 <2><492>: Abbrev Number: 4 (DW_TAG_imported_declaration)
    <493>   DW_AT_decl_file   : 30
    <494>   DW_AT_decl_line   : 202
    <495>   DW_AT_decl_column : 11
    <496>   DW_AT_import      : <0x5b08>	[Abbrev Number: 10 (DW_TAG_subprogram)]
 <2><49a>: Abbrev Number: 4 (DW_TAG_imported_declaration)
    <49b>   DW_AT_decl_file   : 30
    <49c>   DW_AT_decl_line   : 203
    <49d>   DW_AT_decl_column : 11
    <49e>   DW_AT_import      : <0x5b29>	[Abbrev Number: 10 (DW_TAG_subprogram)]
 <2><4a2>: Abbrev Number: 4 (DW_TAG_imported_declaration)
    <4a3>   DW_AT_decl_file   : 30
    <4a4>   DW_AT_decl_line   : 204
    <4a5>   DW_AT_decl_column : 11
    <4a6>   DW_AT_import      : <0x5b4a>	[Abbrev Number: 10 (DW_TAG_subprogram)]
 <2><4aa>: Abbrev Number: 4 (DW_TAG_imported_declaration)
    <4ab>   DW_AT_decl_file   : 30
    <4ac>   DW_AT_decl_line   : 205
    <4ad>   DW_AT_decl_column : 11
    <4ae>   DW_AT_import      : <0x5b62>	[Abbrev Number: 16 (DW_TAG_subprogram)]
 <2><4b2>: Abbrev Number: 4 (DW_TAG_imported_declaration)
    <4b3>   DW_AT_decl_file   : 30
    <4b4>   DW_AT_decl_line   : 206
    <4b5>   DW_AT_decl_column : 11
    <4b6>   DW_AT_import      : <0x5b7e>	[Abbrev Number: 18 (DW_TAG_subprogram)]
 <2><4ba>: Abbrev Number: 4 (DW_TAG_imported_declaration)
    <4bb>   DW_AT_decl_file   : 30
    <4bc>   DW_AT_decl_line   : 206
    <4bd>   DW_AT_decl_column : 11
    <4be>   DW_AT_import      : <0x5b9d>	[Abbrev Number: 18 (DW_TAG_subprogram)]
 <2><4c2>: Abbrev Number: 4 (DW_TAG_imported_declaration)
    <4c3>   DW_AT_decl_file   : 30
    <4c4>   DW_AT_decl_line   : 207
    <4c5>   DW_AT_decl_column : 11
    <4c6>   DW_AT_import      : <0x5bbc>	[Abbrev Number: 18 (DW_TAG_subprogram)]
 <2><4ca>: Abbrev Number: 4 (DW_TAG_imported_declaration)
    <4cb>   DW_AT_decl_file   : 30
    <4cc>   DW_AT_decl_line   : 207
    <4cd>   DW_AT_decl_column : 11
    <4ce>   DW_AT_import      : <0x5bdb>	[Abbrev Number: 18 (DW_TAG_subprogram)]
 <2><4d2>: Abbrev Number: 4 (DW_TAG_imported_declaration)
    <4d3>   DW_AT_decl_file   : 30
    <4d4>   DW_AT_decl_line   : 208
    <4d5>   DW_AT_decl_column : 11
    <4d6>   DW_AT_import      : <0x5bfa>	[Abbrev Number: 18 (DW_TAG_subprogram)]
 <2><4da>: Abbrev Number: 4 (DW_TAG_imported_declaration)
    <4db>   DW_AT_decl_file   : 30
    <4dc>   DW_AT_decl_line   : 208
    <4dd>   DW_AT_decl_column : 11
    <4de>   DW_AT_import      : <0x5c19>	[Abbrev Number: 18 (DW_TAG_subprogram)]
 <2><4e2>: Abbrev Number: 4 (DW_TAG_imported_declaration)
    <4e3>   DW_AT_decl_file   : 30
    <4e4>   DW_AT_decl_line   : 209
    <4e5>   DW_AT_decl_column : 11
    <4e6>   DW_AT_import      : <0x5c38>	[Abbrev Number: 18 (DW_TAG_subprogram)]
 <2><4ea>: Abbrev Number: 4 (DW_TAG_imported_declaration)
    <4eb>   DW_AT_decl_file   : 30
    <4ec>   DW_AT_decl_line   : 209
    <4ed>   DW_AT_decl_column : 11
    <4ee>   DW_AT_import      : <0x5c57>	[Abbrev Number: 18 (DW_TAG_subprogram)]
 <2><4f2>: Abbrev Number: 4 (DW_TAG_imported_declaration)
    <4f3>   DW_AT_decl_file   : 30
    <4f4>   DW_AT_decl_line   : 210
    <4f5>   DW_AT_decl_column : 11
    <4f6>   DW_AT_import      : <0x5c76>	[Abbrev Number: 18 (DW_TAG_subprogram)]
 <2><4fa>: Abbrev Number: 4 (DW_TAG_imported_declaration)
    <4fb>   DW_AT_decl_file   : 30
    <4fc>   DW_AT_decl_line   : 210
    <4fd>   DW_AT_decl_column : 11
    <4fe>   DW_AT_import      : <0x5c9a>	[Abbrev Number: 18 (DW_TAG_subprogram)]
 <2><502>: Abbrev Number: 33 (DW_TAG_imported_declaration)
    <503>   DW_AT_decl_file   : 30
    <504>   DW_AT_decl_line   : 267
    <506>   DW_AT_decl_column : 22
    <507>   DW_AT_import      : <0x6b7a>	[Abbrev Number: 10 (DW_TAG_subprogram)]
 <2><50b>: Abbrev Number: 33 (DW_TAG_imported_declaration)
    <50c>   DW_AT_decl_file   : 30
    <50d>   DW_AT_decl_line   : 268
    <50f>   DW_AT_decl_column : 22
    <510>   DW_AT_import      : <0x6b96>	[Abbrev Number: 10 (DW_TAG_subprogram)]
 <2><514>: Abbrev Number: 33 (DW_TAG_imported_declaration)
    <515>   DW_AT_decl_file   : 30
    <516>   DW_AT_decl_line   : 269
    <518>   DW_AT_decl_column : 22
    <519>   DW_AT_import      : <0x6bbe>	[Abbrev Number: 10 (DW_TAG_subprogram)]
 <2><51d>: Abbrev Number: 33 (DW_TAG_imported_declaration)
    <51e>   DW_AT_decl_file   : 30
    <51f>   DW_AT_decl_line   : 283
    <521>   DW_AT_decl_column : 14
    <522>   DW_AT_import      : <0x5a0a>	[Abbrev Number: 10 (DW_TAG_subprogram)]
 <2><526>: Abbrev Number: 33 (DW_TAG_imported_declaration)
    <527>   DW_AT_decl_file   : 30
    <528>   DW_AT_decl_line   : 286
    <52a>   DW_AT_decl_column : 14
    <52b>   DW_AT_import      : <0x5702>	[Abbrev Number: 16 (DW_TAG_subprogram)]
 <2><52f>: Abbrev Number: 33 (DW_TAG_imported_declaration)
    <530>   DW_AT_decl_file   : 30
    <531>   DW_AT_decl_line   : 289
    <533>   DW_AT_decl_column : 14
    <534>   DW_AT_import      : <0x574d>	[Abbrev Number: 16 (DW_TAG_subprogram)]
 <2><538>: Abbrev Number: 33 (DW_TAG_imported_declaration)
    <539>   DW_AT_decl_file   : 30
    <53a>   DW_AT_decl_line   : 292
    <53c>   DW_AT_decl_column : 14
    <53d>   DW_AT_import      : <0x578e>	[Abbrev Number: 16 (DW_TAG_subprogram)]
 <2><541>: Abbrev Number: 33 (DW_TAG_imported_declaration)
    <542>   DW_AT_decl_file   : 30
    <543>   DW_AT_decl_line   : 296
    <545>   DW_AT_decl_column : 14
    <546>   DW_AT_import      : <0x6b7a>	[Abbrev Number: 10 (DW_TAG_subprogram)]
 <2><54a>: Abbrev Number: 33 (DW_TAG_imported_declaration)
    <54b>   DW_AT_decl_file   : 30
    <54c>   DW_AT_decl_line   : 297
    <54e>   DW_AT_decl_column : 14
    <54f>   DW_AT_import      : <0x6b96>	[Abbrev Number: 10 (DW_TAG_subprogram)]
 <2><553>: Abbrev Number: 33 (DW_TAG_imported_declaration)
    <554>   DW_AT_decl_file   : 30
    <555>   DW_AT_decl_line   : 298
    <557>   DW_AT_decl_column : 14
    <558>   DW_AT_import      : <0x6bbe>	[Abbrev Number: 10 (DW_TAG_subprogram)]
 <2><55c>: Abbrev Number: 136 (DW_TAG_enumeration_type)
    <55e>   DW_AT_name        : (indirect string, offset: 0x7471): align_val_t
    <562>   DW_AT_enum_class  : 1
    <562>   DW_AT_encoding    : 7	(unsigned)
    <563>   DW_AT_byte_size   : 8
    <564>   DW_AT_type        : <0x5a>
    <568>   DW_AT_decl_file   : 1
    <569>   DW_AT_decl_line   : 89
    <56a>   DW_AT_decl_column : 14
 <2><56b>: Abbrev Number: 22 (DW_TAG_structure_type)
    <56c>   DW_AT_name        : (indirect string, offset: 0x81b5): integral_constant<bool, false>
    <570>   DW_AT_byte_size   : 1
    <571>   DW_AT_decl_file   : 31
    <572>   DW_AT_decl_line   : 65
    <573>   DW_AT_decl_column : 12
    <574>   DW_AT_sibling     : <0x5d4>
 <3><578>: Abbrev Number: 5 (DW_TAG_typedef)
    <579>   DW_AT_name        : (indirect string, offset: 0x2920): value_type
    <57d>   DW_AT_decl_file   : 31
    <57e>   DW_AT_decl_line   : 68
    <57f>   DW_AT_decl_column : 45
    <580>   DW_AT_type        : <0x6bec>
 <3><584>: Abbrev Number: 43 (DW_TAG_subprogram)
    <585>   DW_AT_external    : 1
    <585>   DW_AT_name        : (indirect string, offset: 0x7908): operator std::integral_constant<bool, false>::value_type
    <589>   DW_AT_decl_file   : 31
    <58a>   DW_AT_decl_line   : 70
    <58b>   DW_AT_decl_column : 17
    <58c>   DW_AT_linkage_name: (indirect string, offset: 0x1df4): _ZNKSt17integral_constantIbLb0EEcvbEv
    <590>   DW_AT_type        : <0x578>
    <594>   DW_AT_declaration : 1
    <594>   DW_AT_object_pointer: <0x59c>
    <598>   DW_AT_sibling     : <0x5a2>
 <4><59c>: Abbrev Number: 2 (DW_TAG_formal_parameter)
    <59d>   DW_AT_type        : <0x6bf8>
    <5a1>   DW_AT_artificial  : 1
 <4><5a1>: Abbrev Number: 0
 <3><5a2>: Abbrev Number: 43 (DW_TAG_subprogram)
    <5a3>   DW_AT_external    : 1
    <5a3>   DW_AT_name        : (indirect string, offset: 0x6c67): operator()
    <5a7>   DW_AT_decl_file   : 31
    <5a8>   DW_AT_decl_line   : 75
    <5a9>   DW_AT_decl_column : 28
    <5aa>   DW_AT_linkage_name: (indirect string, offset: 0x3dab): _ZNKSt17integral_constantIbLb0EEclEv
    <5ae>   DW_AT_type        : <0x578>
    <5b2>   DW_AT_declaration : 1
    <5b2>   DW_AT_object_pointer: <0x5ba>
    <5b6>   DW_AT_sibling     : <0x5c0>
 <4><5ba>: Abbrev Number: 2 (DW_TAG_formal_parameter)
    <5bb>   DW_AT_type        : <0x6bf8>
    <5bf>   DW_AT_artificial  : 1
 <4><5bf>: Abbrev Number: 0
 <3><5c0>: Abbrev Number: 15 (DW_TAG_template_type_param)
    <5c1>   DW_AT_name        : _Tp
    <5c5>   DW_AT_type        : <0x6bec>
 <3><5c9>: Abbrev Number: 44 (DW_TAG_template_value_param)
    <5ca>   DW_AT_name        : __v
    <5ce>   DW_AT_type        : <0x6bec>
    <5d2>   DW_AT_const_value : 0
 <3><5d3>: Abbrev Number: 0
 <2><5d4>: Abbrev Number: 8 (DW_TAG_const_type)
    <5d5>   DW_AT_type        : <0x56b>
 <2><5d9>: Abbrev Number: 22 (DW_TAG_structure_type)
    <5da>   DW_AT_name        : (indirect string, offset: 0x3ca1): integral_constant<bool, true>
    <5de>   DW_AT_byte_size   : 1
    <5df>   DW_AT_decl_file   : 31
    <5e0>   DW_AT_decl_line   : 65
    <5e1>   DW_AT_decl_column : 12
    <5e2>   DW_AT_sibling     : <0x642>
 <3><5e6>: Abbrev Number: 5 (DW_TAG_typedef)
    <5e7>   DW_AT_name        : (indirect string, offset: 0x2920): value_type
    <5eb>   DW_AT_decl_file   : 31
    <5ec>   DW_AT_decl_line   : 68
    <5ed>   DW_AT_decl_column : 45
    <5ee>   DW_AT_type        : <0x6bec>
 <3><5f2>: Abbrev Number: 43 (DW_TAG_subprogram)
    <5f3>   DW_AT_external    : 1
    <5f3>   DW_AT_name        : (indirect string, offset: 0x9ba9): operator std::integral_constant<bool, true>::value_type
    <5f7>   DW_AT_decl_file   : 31
    <5f8>   DW_AT_decl_line   : 70
    <5f9>   DW_AT_decl_column : 17
    <5fa>   DW_AT_linkage_name: (indirect string, offset: 0x4b19): _ZNKSt17integral_constantIbLb1EEcvbEv
    <5fe>   DW_AT_type        : <0x5e6>
    <602>   DW_AT_declaration : 1
    <602>   DW_AT_object_pointer: <0x60a>
    <606>   DW_AT_sibling     : <0x610>
 <4><60a>: Abbrev Number: 2 (DW_TAG_formal_parameter)
    <60b>   DW_AT_type        : <0x6bfd>
    <60f>   DW_AT_artificial  : 1
 <4><60f>: Abbrev Number: 0
 <3><610>: Abbrev Number: 43 (DW_TAG_subprogram)
    <611>   DW_AT_external    : 1
    <611>   DW_AT_name        : (indirect string, offset: 0x6c67): operator()
    <615>   DW_AT_decl_file   : 31
    <616>   DW_AT_decl_line   : 75
    <617>   DW_AT_decl_column : 28
    <618>   DW_AT_linkage_name: (indirect string, offset: 0x315b): _ZNKSt17integral_constantIbLb1EEclEv
    <61c>   DW_AT_type        : <0x5e6>
    <620>   DW_AT_declaration : 1
    <620>   DW_AT_object_pointer: <0x628>
    <624>   DW_AT_sibling     : <0x62e>
 <4><628>: Abbrev Number: 2 (DW_TAG_formal_parameter)
    <629>   DW_AT_type        : <0x6bfd>
    <62d>   DW_AT_artificial  : 1
 <4><62d>: Abbrev Number: 0
 <3><62e>: Abbrev Number: 15 (DW_TAG_template_type_param)
    <62f>   DW_AT_name        : _Tp
    <633>   DW_AT_type        : <0x6bec>
 <3><637>: Abbrev Number: 44 (DW_TAG_template_value_param)
    <638>   DW_AT_name        : __v
    <63c>   DW_AT_type        : <0x6bec>
    <640>   DW_AT_const_value : 1
 <3><641>: Abbrev Number: 0
 <2><642>: Abbrev Number: 8 (DW_TAG_const_type)
    <643>   DW_AT_type        : <0x5d9>
 <2><647>: Abbrev Number: 5 (DW_TAG_typedef)
    <648>   DW_AT_name        : (indirect string, offset: 0x8f29): false_type
    <64c>   DW_AT_decl_file   : 31
    <64d>   DW_AT_decl_line   : 86
    <64e>   DW_AT_decl_column : 9
    <64f>   DW_AT_type        : <0x56b>
 <2><653>: Abbrev Number: 26 (DW_TAG_typedef)
    <654>   DW_AT_name        : (indirect string, offset: 0x1a1c): size_t
    <658>   DW_AT_decl_file   : 32
    <659>   DW_AT_decl_line   : 280
    <65b>   DW_AT_decl_column : 26
    <65c>   DW_AT_type        : <0x5a>
 <2><660>: Abbrev Number: 8 (DW_TAG_const_type)
    <661>   DW_AT_type        : <0x653>
 <2><665>: Abbrev Number: 102 (DW_TAG_namespace)
    <666>   DW_AT_name        : (indirect string, offset: 0x7016): __swappable_details
    <66a>   DW_AT_decl_file   : 31
    <66a>   DW_AT_decl_line   : 2694
    <66c>   DW_AT_decl_column : 13
 <2><66c>: Abbrev Number: 102 (DW_TAG_namespace)
    <66d>   DW_AT_name        : (indirect string, offset: 0x4c40): __swappable_with_details
    <671>   DW_AT_decl_file   : 31
    <671>   DW_AT_decl_line   : 2780
    <673>   DW_AT_decl_column : 13
 <2><673>: Abbrev Number: 87 (DW_TAG_namespace)
    <674>   DW_AT_name        : (indirect string, offset: 0x4b84): __exception_ptr
    <678>   DW_AT_decl_file   : 33
    <679>   DW_AT_decl_line   : 63
    <67a>   DW_AT_decl_column : 13
    <67b>   DW_AT_sibling     : <0x852>
 <3><67f>: Abbrev Number: 40 (DW_TAG_class_type)
    <680>   DW_AT_name        : (indirect string, offset: 0x4d7c): exception_ptr
    <684>   DW_AT_byte_size   : 8
    <685>   DW_AT_decl_file   : 33
    <686>   DW_AT_decl_line   : 90
    <687>   DW_AT_decl_column : 11
    <688>   DW_AT_sibling     : <0x844>
 <4><68c>: Abbrev Number: 6 (DW_TAG_member)
    <68d>   DW_AT_name        : (indirect string, offset: 0x5352): _M_exception_object
    <691>   DW_AT_decl_file   : 33
    <692>   DW_AT_decl_line   : 92
    <693>   DW_AT_decl_column : 13
    <694>   DW_AT_type        : <0xa3>
    <698>   DW_AT_data_member_location: 0
 <4><699>: Abbrev Number: 79 (DW_TAG_subprogram)
    <69a>   DW_AT_external    : 1
    <69a>   DW_AT_name        : (indirect string, offset: 0x4d7c): exception_ptr
    <69e>   DW_AT_decl_file   : 33
    <69f>   DW_AT_decl_line   : 94
    <6a0>   DW_AT_decl_column : 16
    <6a1>   DW_AT_linkage_name: (indirect string, offset: 0x26a2): _ZNSt15__exception_ptr13exception_ptrC4EPv
    <6a5>   DW_AT_declaration : 1
    <6a5>   DW_AT_explicit    : 1
    <6a5>   DW_AT_object_pointer: <0x6ad>
    <6a9>   DW_AT_sibling     : <0x6b8>
 <5><6ad>: Abbrev Number: 2 (DW_TAG_formal_parameter)
    <6ae>   DW_AT_type        : <0x6c33>
    <6b2>   DW_AT_artificial  : 1
 <5><6b2>: Abbrev Number: 1 (DW_TAG_formal_parameter)
    <6b3>   DW_AT_type        : <0xa3>
 <5><6b7>: Abbrev Number: 0
 <4><6b8>: Abbrev Number: 29 (DW_TAG_subprogram)
    <6b9>   DW_AT_external    : 1
    <6b9>   DW_AT_name        : (indirect string, offset: 0x4890): _M_addref
    <6bd>   DW_AT_decl_file   : 33
    <6be>   DW_AT_decl_line   : 96
    <6bf>   DW_AT_decl_column : 12
    <6c0>   DW_AT_linkage_name: (indirect string, offset: 0x9425): _ZNSt15__exception_ptr13exception_ptr9_M_addrefEv
    <6c4>   DW_AT_declaration : 1
    <6c4>   DW_AT_object_pointer: <0x6cc>
    <6c8>   DW_AT_sibling     : <0x6d2>
 <5><6cc>: Abbrev Number: 2 (DW_TAG_formal_parameter)
    <6cd>   DW_AT_type        : <0x6c33>
    <6d1>   DW_AT_artificial  : 1
 <5><6d1>: Abbrev Number: 0
 <4><6d2>: Abbrev Number: 29 (DW_TAG_subprogram)
    <6d3>   DW_AT_external    : 1
    <6d3>   DW_AT_name        : (indirect string, offset: 0x29f4): _M_release
    <6d7>   DW_AT_decl_file   : 33
    <6d8>   DW_AT_decl_line   : 97
    <6d9>   DW_AT_decl_column : 12
    <6da>   DW_AT_linkage_name: (indirect string, offset: 0x8ffb): _ZNSt15__exception_ptr13exception_ptr10_M_releaseEv
    <6de>   DW_AT_declaration : 1
    <6de>   DW_AT_object_pointer: <0x6e6>
    <6e2>   DW_AT_sibling     : <0x6ec>
 <5><6e6>: Abbrev Number: 2 (DW_TAG_formal_parameter)
    <6e7>   DW_AT_type        : <0x6c33>
    <6eb>   DW_AT_artificial  : 1
 <5><6eb>: Abbrev Number: 0
 <4><6ec>: Abbrev Number: 43 (DW_TAG_subprogram)
    <6ed>   DW_AT_external    : 1
    <6ed>   DW_AT_name        : (indirect string, offset: 0x37ea): _M_get
    <6f1>   DW_AT_decl_file   : 33
    <6f2>   DW_AT_decl_line   : 99
    <6f3>   DW_AT_decl_column : 13
    <6f4>   DW_AT_linkage_name: (indirect string, offset: 0xf50): _ZNKSt15__exception_ptr13exception_ptr6_M_getEv
    <6f8>   DW_AT_type        : <0xa3>
    <6fc>   DW_AT_declaration : 1
    <6fc>   DW_AT_object_pointer: <0x704>
    <700>   DW_AT_sibling     : <0x70a>
 <5><704>: Abbrev Number: 2 (DW_TAG_formal_parameter)
    <705>   DW_AT_type        : <0x6c38>
    <709>   DW_AT_artificial  : 1
 <5><709>: Abbrev Number: 0
 <4><70a>: Abbrev Number: 23 (DW_TAG_subprogram)
    <70b>   DW_AT_external    : 1
    <70b>   DW_AT_name        : (indirect string, offset: 0x4d7c): exception_ptr
    <70f>   DW_AT_decl_file   : 33
    <710>   DW_AT_decl_line   : 107
    <711>   DW_AT_decl_column : 7
    <712>   DW_AT_linkage_name: (indirect string, offset: 0xa869): _ZNSt15__exception_ptr13exception_ptrC4Ev
    <716>   DW_AT_accessibility: 1	(public)
    <716>   DW_AT_declaration : 1
    <716>   DW_AT_object_pointer: <0x71e>
    <71a>   DW_AT_sibling     : <0x724>
 <5><71e>: Abbrev Number: 2 (DW_TAG_formal_parameter)
    <71f>   DW_AT_type        : <0x6c33>
    <723>   DW_AT_artificial  : 1
 <5><723>: Abbrev Number: 0
 <4><724>: Abbrev Number: 23 (DW_TAG_subprogram)
    <725>   DW_AT_external    : 1
    <725>   DW_AT_name        : (indirect string, offset: 0x4d7c): exception_ptr
    <729>   DW_AT_decl_file   : 33
    <72a>   DW_AT_decl_line   : 109
    <72b>   DW_AT_decl_column : 7
    <72c>   DW_AT_linkage_name: (indirect string, offset: 0x8d8c): _ZNSt15__exception_ptr13exception_ptrC4ERKS0_
    <730>   DW_AT_accessibility: 1	(public)
    <730>   DW_AT_declaration : 1
    <730>   DW_AT_object_pointer: <0x738>
    <734>   DW_AT_sibling     : <0x743>
 <5><738>: Abbrev Number: 2 (DW_TAG_formal_parameter)
    <739>   DW_AT_type        : <0x6c33>
    <73d>   DW_AT_artificial  : 1
 <5><73d>: Abbrev Number: 1 (DW_TAG_formal_parameter)
    <73e>   DW_AT_type        : <0x6c3d>
 <5><742>: Abbrev Number: 0
 <4><743>: Abbrev Number: 23 (DW_TAG_subprogram)
    <744>   DW_AT_external    : 1
    <744>   DW_AT_name        : (indirect string, offset: 0x4d7c): exception_ptr
    <748>   DW_AT_decl_file   : 33
    <749>   DW_AT_decl_line   : 112
    <74a>   DW_AT_decl_column : 7
    <74b>   DW_AT_linkage_name: (indirect string, offset: 0x13a5): _ZNSt15__exception_ptr13exception_ptrC4EDn
    <74f>   DW_AT_accessibility: 1	(public)
    <74f>   DW_AT_declaration : 1
    <74f>   DW_AT_object_pointer: <0x757>
    <753>   DW_AT_sibling     : <0x762>
 <5><757>: Abbrev Number: 2 (DW_TAG_formal_parameter)
    <758>   DW_AT_type        : <0x6c33>
    <75c>   DW_AT_artificial  : 1
 <5><75c>: Abbrev Number: 1 (DW_TAG_formal_parameter)
    <75d>   DW_AT_type        : <0x870>
 <5><761>: Abbrev Number: 0
 <4><762>: Abbrev Number: 23 (DW_TAG_subprogram)
    <763>   DW_AT_external    : 1
    <763>   DW_AT_name        : (indirect string, offset: 0x4d7c): exception_ptr
    <767>   DW_AT_decl_file   : 33
    <768>   DW_AT_decl_line   : 116
    <769>   DW_AT_decl_column : 7
    <76a>   DW_AT_linkage_name: (indirect string, offset: 0x740d): _ZNSt15__exception_ptr13exception_ptrC4EOS0_
    <76e>   DW_AT_accessibility: 1	(public)
    <76e>   DW_AT_declaration : 1
    <76e>   DW_AT_object_pointer: <0x776>
    <772>   DW_AT_sibling     : <0x781>
 <5><776>: Abbrev Number: 2 (DW_TAG_formal_parameter)
    <777>   DW_AT_type        : <0x6c33>
    <77b>   DW_AT_artificial  : 1
 <5><77b>: Abbrev Number: 1 (DW_TAG_formal_parameter)
    <77c>   DW_AT_type        : <0x6c42>
 <5><780>: Abbrev Number: 0
 <4><781>: Abbrev Number: 20 (DW_TAG_subprogram)
    <782>   DW_AT_external    : 1
    <782>   DW_AT_name        : (indirect string, offset: 0x9b63): operator=
    <786>   DW_AT_decl_file   : 33
    <787>   DW_AT_decl_line   : 129
    <788>   DW_AT_decl_column : 7
    <789>   DW_AT_linkage_name: (indirect string, offset: 0x41e2): _ZNSt15__exception_ptr13exception_ptraSERKS0_
    <78d>   DW_AT_type        : <0x6c47>
    <791>   DW_AT_accessibility: 1	(public)
    <792>   DW_AT_declaration : 1
    <792>   DW_AT_object_pointer: <0x79a>
    <796>   DW_AT_sibling     : <0x7a5>
 <5><79a>: Abbrev Number: 2 (DW_TAG_formal_parameter)
    <79b>   DW_AT_type        : <0x6c33>
    <79f>   DW_AT_artificial  : 1
 <5><79f>: Abbrev Number: 1 (DW_TAG_formal_parameter)
    <7a0>   DW_AT_type        : <0x6c3d>
 <5><7a4>: Abbrev Number: 0
 <4><7a5>: Abbrev Number: 20 (DW_TAG_subprogram)
    <7a6>   DW_AT_external    : 1
    <7a6>   DW_AT_name        : (indirect string, offset: 0x9b63): operator=
    <7aa>   DW_AT_decl_file   : 33
    <7ab>   DW_AT_decl_line   : 133
    <7ac>   DW_AT_decl_column : 7
    <7ad>   DW_AT_linkage_name: (indirect string, offset: 0x88f7): _ZNSt15__exception_ptr13exception_ptraSEOS0_
    <7b1>   DW_AT_type        : <0x6c47>
    <7b5>   DW_AT_accessibility: 1	(public)
    <7b6>   DW_AT_declaration : 1
    <7b6>   DW_AT_object_pointer: <0x7be>
    <7ba>   DW_AT_sibling     : <0x7c9>
 <5><7be>: Abbrev Number: 2 (DW_TAG_formal_parameter)
    <7bf>   DW_AT_type        : <0x6c33>
    <7c3>   DW_AT_artificial  : 1
 <5><7c3>: Abbrev Number: 1 (DW_TAG_formal_parameter)
    <7c4>   DW_AT_type        : <0x6c42>
 <5><7c8>: Abbrev Number: 0
 <4><7c9>: Abbrev Number: 23 (DW_TAG_subprogram)
    <7ca>   DW_AT_external    : 1
    <7ca>   DW_AT_name        : (indirect string, offset: 0xac3a): ~exception_ptr
    <7ce>   DW_AT_decl_file   : 33
    <7cf>   DW_AT_decl_line   : 140
    <7d0>   DW_AT_decl_column : 7
    <7d1>   DW_AT_linkage_name: (indirect string, offset: 0x7066): _ZNSt15__exception_ptr13exception_ptrD4Ev
    <7d5>   DW_AT_accessibility: 1	(public)
    <7d5>   DW_AT_declaration : 1
    <7d5>   DW_AT_object_pointer: <0x7dd>
    <7d9>   DW_AT_sibling     : <0x7e8>
 <5><7dd>: Abbrev Number: 2 (DW_TAG_formal_parameter)
    <7de>   DW_AT_type        : <0x6c33>
    <7e2>   DW_AT_artificial  : 1
 <5><7e2>: Abbrev Number: 2 (DW_TAG_formal_parameter)
    <7e3>   DW_AT_type        : <0x118>
    <7e7>   DW_AT_artificial  : 1
 <5><7e7>: Abbrev Number: 0
 <4><7e8>: Abbrev Number: 23 (DW_TAG_subprogram)
    <7e9>   DW_AT_external    : 1
    <7e9>   DW_AT_name        : (indirect string, offset: 0x67ff): swap
    <7ed>   DW_AT_decl_file   : 33
    <7ee>   DW_AT_decl_line   : 143
    <7ef>   DW_AT_decl_column : 7
    <7f0>   DW_AT_linkage_name: (indirect string, offset: 0x6561): _ZNSt15__exception_ptr13exception_ptr4swapERS0_
    <7f4>   DW_AT_accessibility: 1	(public)
    <7f4>   DW_AT_declaration : 1
    <7f4>   DW_AT_object_pointer: <0x7fc>
    <7f8>   DW_AT_sibling     : <0x807>
 <5><7fc>: Abbrev Number: 2 (DW_TAG_formal_parameter)
    <7fd>   DW_AT_type        : <0x6c33>
    <801>   DW_AT_artificial  : 1
 <5><801>: Abbrev Number: 1 (DW_TAG_formal_parameter)
    <802>   DW_AT_type        : <0x6c47>
 <5><806>: Abbrev Number: 0
 <4><807>: Abbrev Number: 137 (DW_TAG_subprogram)
    <809>   DW_AT_external    : 1
    <809>   DW_AT_name        : (indirect string, offset: 0x1aea): operator bool
    <80d>   DW_AT_decl_file   : 33
    <80e>   DW_AT_decl_line   : 155
    <80f>   DW_AT_decl_column : 16
    <810>   DW_AT_linkage_name: (indirect string, offset: 0x1d7b): _ZNKSt15__exception_ptr13exception_ptrcvbEv
    <814>   DW_AT_type        : <0x6bec>
    <818>   DW_AT_accessibility: 1	(public)
    <819>   DW_AT_declaration : 1
    <819>   DW_AT_explicit    : 1
    <819>   DW_AT_object_pointer: <0x821>
    <81d>   DW_AT_sibling     : <0x827>
 <5><821>: Abbrev Number: 2 (DW_TAG_formal_parameter)
    <822>   DW_AT_type        : <0x6c38>
    <826>   DW_AT_artificial  : 1
 <5><826>: Abbrev Number: 0
 <4><827>: Abbrev Number: 138 (DW_TAG_subprogram)
    <829>   DW_AT_external    : 1
    <829>   DW_AT_name        : (indirect string, offset: 0x40c5): __cxa_exception_type
    <82d>   DW_AT_decl_file   : 33
    <82e>   DW_AT_decl_line   : 176
    <82f>   DW_AT_decl_column : 7
    <830>   DW_AT_linkage_name: (indirect string, offset: 0xa82a): _ZNKSt15__exception_ptr13exception_ptr20__cxa_exception_typeEv
    <834>   DW_AT_type        : <0x6c4c>
    <838>   DW_AT_accessibility: 1	(public)
    <839>   DW_AT_declaration : 1
    <839>   DW_AT_object_pointer: <0x83d>
 <5><83d>: Abbrev Number: 2 (DW_TAG_formal_parameter)
    <83e>   DW_AT_type        : <0x6c38>
    <842>   DW_AT_artificial  : 1
 <5><842>: Abbrev Number: 0
 <4><843>: Abbrev Number: 0
 <3><844>: Abbrev Number: 8 (DW_TAG_const_type)
    <845>   DW_AT_type        : <0x67f>
 <3><849>: Abbrev Number: 4 (DW_TAG_imported_declaration)
    <84a>   DW_AT_decl_file   : 33
    <84b>   DW_AT_decl_line   : 84
    <84c>   DW_AT_decl_column : 16
    <84d>   DW_AT_import      : <0x85a>	[Abbrev Number: 88 (DW_TAG_subprogram)]
 <3><851>: Abbrev Number: 0
 <2><852>: Abbrev Number: 4 (DW_TAG_imported_declaration)
    <853>   DW_AT_decl_file   : 33
    <854>   DW_AT_decl_line   : 68
    <855>   DW_AT_decl_column : 26
    <856>   DW_AT_import      : <0x67f>	[Abbrev Number: 40 (DW_TAG_class_type)]
 <2><85a>: Abbrev Number: 88 (DW_TAG_subprogram)
    <85b>   DW_AT_external    : 1
    <85b>   DW_AT_name        : (indirect string, offset: 0x393c): rethrow_exception
    <85f>   DW_AT_decl_file   : 33
    <860>   DW_AT_decl_line   : 80
    <861>   DW_AT_decl_column : 8
    <862>   DW_AT_linkage_name: (indirect string, offset: 0x538e): _ZSt17rethrow_exceptionNSt15__exception_ptr13exception_ptrE
    <866>   DW_AT_noreturn    : 1
    <866>   DW_AT_declaration : 1
    <866>   DW_AT_sibling     : <0x870>
 <3><86a>: Abbrev Number: 1 (DW_TAG_formal_parameter)
    <86b>   DW_AT_type        : <0x67f>
 <3><86f>: Abbrev Number: 0
 <2><870>: Abbrev Number: 26 (DW_TAG_typedef)
    <871>   DW_AT_name        : (indirect string, offset: 0x1bee): nullptr_t
    <875>   DW_AT_decl_file   : 32
    <876>   DW_AT_decl_line   : 284
    <878>   DW_AT_decl_column : 29
    <879>   DW_AT_type        : <0x6be6>
 <2><87d>: Abbrev Number: 61 (DW_TAG_class_type)
    <87e>   DW_AT_name        : (indirect string, offset: 0x5576): type_info
    <882>   DW_AT_declaration : 1
 <2><882>: Abbrev Number: 8 (DW_TAG_const_type)
    <883>   DW_AT_type        : <0x87d>
 <2><887>: Abbrev Number: 139 (DW_TAG_structure_type)
    <889>   DW_AT_name        : (indirect string, offset: 0x8b01): input_iterator_tag
    <88d>   DW_AT_byte_size   : 1
    <88e>   DW_AT_decl_file   : 16
    <88f>   DW_AT_decl_line   : 93
    <890>   DW_AT_decl_column : 10
 <2><891>: Abbrev Number: 22 (DW_TAG_structure_type)
    <892>   DW_AT_name        : (indirect string, offset: 0x8d14): forward_iterator_tag
    <896>   DW_AT_byte_size   : 1
    <897>   DW_AT_decl_file   : 16
    <898>   DW_AT_decl_line   : 99
    <899>   DW_AT_decl_column : 10
    <89a>   DW_AT_sibling     : <0x8a4>
 <3><89e>: Abbrev Number: 53 (DW_TAG_inheritance)
    <89f>   DW_AT_type        : <0x887>
    <8a3>   DW_AT_data_member_location: 0
 <3><8a3>: Abbrev Number: 0
 <2><8a4>: Abbrev Number: 22 (DW_TAG_structure_type)
    <8a5>   DW_AT_name        : (indirect string, offset: 0x1301): bidirectional_iterator_tag
    <8a9>   DW_AT_byte_size   : 1
    <8aa>   DW_AT_decl_file   : 16
    <8ab>   DW_AT_decl_line   : 103
    <8ac>   DW_AT_decl_column : 10
    <8ad>   DW_AT_sibling     : <0x8b7>
 <3><8b1>: Abbrev Number: 53 (DW_TAG_inheritance)
    <8b2>   DW_AT_type        : <0x891>
    <8b6>   DW_AT_data_member_location: 0
 <3><8b6>: Abbrev Number: 0
 <2><8b7>: Abbrev Number: 22 (DW_TAG_structure_type)
    <8b8>   DW_AT_name        : (indirect string, offset: 0x429d): random_access_iterator_tag
    <8bc>   DW_AT_byte_size   : 1
    <8bd>   DW_AT_decl_file   : 16
    <8be>   DW_AT_decl_line   : 107
    <8bf>   DW_AT_decl_column : 10
    <8c0>   DW_AT_sibling     : <0x8ca>
 <3><8c4>: Abbrev Number: 53 (DW_TAG_inheritance)
    <8c5>   DW_AT_type        : <0x8a4>
    <8c9>   DW_AT_data_member_location: 0
 <3><8c9>: Abbrev Number: 0
 <2><8ca>: Abbrev Number: 103 (DW_TAG_namespace)
    <8cb>   DW_AT_name        : (indirect string, offset: 0x1371): __debug
    <8cf>   DW_AT_decl_file   : 34
    <8d0>   DW_AT_decl_line   : 50
    <8d1>   DW_AT_decl_column : 13
 <2><8d2>: Abbrev Number: 80 (DW_TAG_structure_type)
    <8d3>   DW_AT_name        : (indirect string, offset: 0x9511): char_traits<char>
    <8d7>   DW_AT_byte_size   : 1
    <8d7>   DW_AT_decl_file   : 3
    <8d8>   DW_AT_decl_line   : 344
    <8da>   DW_AT_decl_column : 12
    <8da>   DW_AT_sibling     : <0xab9>
 <3><8de>: Abbrev Number: 45 (DW_TAG_subprogram)
    <8df>   DW_AT_external    : 1
    <8df>   DW_AT_name        : (indirect string, offset: 0x335e): assign
    <8e3>   DW_AT_decl_file   : 3
    <8e4>   DW_AT_decl_line   : 356
    <8e6>   DW_AT_decl_column : 7
    <8e7>   DW_AT_linkage_name: (indirect string, offset: 0x7cef): _ZNSt11char_traitsIcE6assignERcRKc
    <8eb>   DW_AT_declaration : 1
    <8eb>   DW_AT_sibling     : <0x8fa>
 <4><8ef>: Abbrev Number: 1 (DW_TAG_formal_parameter)
    <8f0>   DW_AT_type        : <0x6c67>
 <4><8f4>: Abbrev Number: 1 (DW_TAG_formal_parameter)
    <8f5>   DW_AT_type        : <0x6c6c>
 <4><8f9>: Abbrev Number: 0
 <3><8fa>: Abbrev Number: 26 (DW_TAG_typedef)
    <8fb>   DW_AT_name        : (indirect string, offset: 0x3098): char_type
    <8ff>   DW_AT_decl_file   : 3
    <900>   DW_AT_decl_line   : 346
    <902>   DW_AT_decl_column : 33
    <903>   DW_AT_type        : <0x10c>
 <3><907>: Abbrev Number: 8 (DW_TAG_const_type)
    <908>   DW_AT_type        : <0x8fa>
 <3><90c>: Abbrev Number: 104 (DW_TAG_subprogram)
    <90d>   DW_AT_external    : 1
    <90d>   DW_AT_name        : eq
    <910>   DW_AT_decl_file   : 3
    <910>   DW_AT_decl_line   : 360
    <912>   DW_AT_decl_column : 7
    <912>   DW_AT_linkage_name: (indirect string, offset: 0xa8fd): _ZNSt11char_traitsIcE2eqERKcS2_
    <916>   DW_AT_type        : <0x6bec>
    <91a>   DW_AT_declaration : 1
    <91a>   DW_AT_sibling     : <0x929>
 <4><91e>: Abbrev Number: 1 (DW_TAG_formal_parameter)
    <91f>   DW_AT_type        : <0x6c6c>
 <4><923>: Abbrev Number: 1 (DW_TAG_formal_parameter)
    <924>   DW_AT_type        : <0x6c6c>
 <4><928>: Abbrev Number: 0
 <3><929>: Abbrev Number: 104 (DW_TAG_subprogram)
    <92a>   DW_AT_external    : 1
    <92a>   DW_AT_name        : lt
    <92d>   DW_AT_decl_file   : 3
    <92d>   DW_AT_decl_line   : 364
    <92f>   DW_AT_decl_column : 7
    <92f>   DW_AT_linkage_name: (indirect string, offset: 0x693f): _ZNSt11char_traitsIcE2ltERKcS2_
    <933>   DW_AT_type        : <0x6bec>
    <937>   DW_AT_declaration : 1
    <937>   DW_AT_sibling     : <0x946>
 <4><93b>: Abbrev Number: 1 (DW_TAG_formal_parameter)
    <93c>   DW_AT_type        : <0x6c6c>
 <4><940>: Abbrev Number: 1 (DW_TAG_formal_parameter)
    <941>   DW_AT_type        : <0x6c6c>
 <4><945>: Abbrev Number: 0
 <3><946>: Abbrev Number: 16 (DW_TAG_subprogram)
    <947>   DW_AT_external    : 1
    <947>   DW_AT_name        : (indirect string, offset: 0x520d): compare
    <94b>   DW_AT_decl_file   : 3
    <94c>   DW_AT_decl_line   : 372
    <94e>   DW_AT_decl_column : 7
    <94f>   DW_AT_linkage_name: (indirect string, offset: 0x4a46): _ZNSt11char_traitsIcE7compareEPKcS2_m
    <953>   DW_AT_type        : <0x118>
    <957>   DW_AT_declaration : 1
    <957>   DW_AT_sibling     : <0x96b>
 <4><95b>: Abbrev Number: 1 (DW_TAG_formal_parameter)
    <95c>   DW_AT_type        : <0x6c71>
 <4><960>: Abbrev Number: 1 (DW_TAG_formal_parameter)
    <961>   DW_AT_type        : <0x6c71>
 <4><965>: Abbrev Number: 1 (DW_TAG_formal_parameter)
    <966>   DW_AT_type        : <0x653>
 <4><96a>: Abbrev Number: 0
 <3><96b>: Abbrev Number: 16 (DW_TAG_subprogram)
    <96c>   DW_AT_external    : 1
    <96c>   DW_AT_name        : (indirect string, offset: 0xb11a): length
    <970>   DW_AT_decl_file   : 3
    <971>   DW_AT_decl_line   : 393
    <973>   DW_AT_decl_column : 7
    <974>   DW_AT_linkage_name: (indirect string, offset: 0x33a8): _ZNSt11char_traitsIcE6lengthEPKc
    <978>   DW_AT_type        : <0x653>
    <97c>   DW_AT_declaration : 1
    <97c>   DW_AT_sibling     : <0x986>
 <4><980>: Abbrev Number: 1 (DW_TAG_formal_parameter)
    <981>   DW_AT_type        : <0x6c71>
 <4><985>: Abbrev Number: 0
 <3><986>: Abbrev Number: 16 (DW_TAG_subprogram)
    <987>   DW_AT_external    : 1
    <987>   DW_AT_name        : (indirect string, offset: 0x7b3f): find
    <98b>   DW_AT_decl_file   : 3
    <98c>   DW_AT_decl_line   : 403
    <98e>   DW_AT_decl_column : 7
    <98f>   DW_AT_linkage_name: (indirect string, offset: 0x80be): _ZNSt11char_traitsIcE4findEPKcmRS1_
    <993>   DW_AT_type        : <0x6c71>
    <997>   DW_AT_declaration : 1
    <997>   DW_AT_sibling     : <0x9ab>
 <4><99b>: Abbrev Number: 1 (DW_TAG_formal_parameter)
    <99c>   DW_AT_type        : <0x6c71>
 <4><9a0>: Abbrev Number: 1 (DW_TAG_formal_parameter)
    <9a1>   DW_AT_type        : <0x653>
 <4><9a5>: Abbrev Number: 1 (DW_TAG_formal_parameter)
    <9a6>   DW_AT_type        : <0x6c6c>
 <4><9aa>: Abbrev Number: 0
 <3><9ab>: Abbrev Number: 16 (DW_TAG_subprogram)
    <9ac>   DW_AT_external    : 1
    <9ac>   DW_AT_name        : (indirect string, offset: 0x1008): move
    <9b0>   DW_AT_decl_file   : 3
    <9b1>   DW_AT_decl_line   : 417
    <9b3>   DW_AT_decl_column : 7
    <9b4>   DW_AT_linkage_name: (indirect string, offset: 0x24c4): _ZNSt11char_traitsIcE4moveEPcPKcm
    <9b8>   DW_AT_type        : <0x6c76>
    <9bc>   DW_AT_declaration : 1
    <9bc>   DW_AT_sibling     : <0x9d0>
 <4><9c0>: Abbrev Number: 1 (DW_TAG_formal_parameter)
    <9c1>   DW_AT_type        : <0x6c76>
 <4><9c5>: Abbrev Number: 1 (DW_TAG_formal_parameter)
    <9c6>   DW_AT_type        : <0x6c71>
 <4><9ca>: Abbrev Number: 1 (DW_TAG_formal_parameter)
    <9cb>   DW_AT_type        : <0x653>
 <4><9cf>: Abbrev Number: 0
 <3><9d0>: Abbrev Number: 16 (DW_TAG_subprogram)
    <9d1>   DW_AT_external    : 1
    <9d1>   DW_AT_name        : (indirect string, offset: 0x99d3): copy
    <9d5>   DW_AT_decl_file   : 3
    <9d6>   DW_AT_decl_line   : 429
    <9d8>   DW_AT_decl_column : 7
    <9d9>   DW_AT_linkage_name: (indirect string, offset: 0x2080): _ZNSt11char_traitsIcE4copyEPcPKcm
    <9dd>   DW_AT_type        : <0x6c76>
    <9e1>   DW_AT_declaration : 1
    <9e1>   DW_AT_sibling     : <0x9f5>
 <4><9e5>: Abbrev Number: 1 (DW_TAG_formal_parameter)
    <9e6>   DW_AT_type        : <0x6c76>
 <4><9ea>: Abbrev Number: 1 (DW_TAG_formal_parameter)
    <9eb>   DW_AT_type        : <0x6c71>
 <4><9ef>: Abbrev Number: 1 (DW_TAG_formal_parameter)
    <9f0>   DW_AT_type        : <0x653>
 <4><9f4>: Abbrev Number: 0
 <3><9f5>: Abbrev Number: 16 (DW_TAG_subprogram)
    <9f6>   DW_AT_external    : 1
    <9f6>   DW_AT_name        : (indirect string, offset: 0x335e): assign
    <9fa>   DW_AT_decl_file   : 3
    <9fb>   DW_AT_decl_line   : 441
    <9fd>   DW_AT_decl_column : 7
    <9fe>   DW_AT_linkage_name: (indirect string, offset: 0x9a4b): _ZNSt11char_traitsIcE6assignEPcmc
    <a02>   DW_AT_type        : <0x6c76>
    <a06>   DW_AT_declaration : 1
    <a06>   DW_AT_sibling     : <0xa1a>
 <4><a0a>: Abbrev Number: 1 (DW_TAG_formal_parameter)
    <a0b>   DW_AT_type        : <0x6c76>
 <4><a0f>: Abbrev Number: 1 (DW_TAG_formal_parameter)
    <a10>   DW_AT_type        : <0x653>
 <4><a14>: Abbrev Number: 1 (DW_TAG_formal_parameter)
    <a15>   DW_AT_type        : <0x8fa>
 <4><a19>: Abbrev Number: 0
 <3><a1a>: Abbrev Number: 16 (DW_TAG_subprogram)
    <a1b>   DW_AT_external    : 1
    <a1b>   DW_AT_name        : (indirect string, offset: 0x3582): to_char_type
    <a1f>   DW_AT_decl_file   : 3
    <a20>   DW_AT_decl_line   : 453
    <a22>   DW_AT_decl_column : 7
    <a23>   DW_AT_linkage_name: (indirect string, offset: 0xa517): _ZNSt11char_traitsIcE12to_char_typeERKi
    <a27>   DW_AT_type        : <0x8fa>
    <a2b>   DW_AT_declaration : 1
    <a2b>   DW_AT_sibling     : <0xa35>
 <4><a2f>: Abbrev Number: 1 (DW_TAG_formal_parameter)
    <a30>   DW_AT_type        : <0x6c7b>
 <4><a34>: Abbrev Number: 0
 <3><a35>: Abbrev Number: 26 (DW_TAG_typedef)
    <a36>   DW_AT_name        : (indirect string, offset: 0x88d2): int_type
    <a3a>   DW_AT_decl_file   : 3
    <a3b>   DW_AT_decl_line   : 347
    <a3d>   DW_AT_decl_column : 33
    <a3e>   DW_AT_type        : <0x118>
 <3><a42>: Abbrev Number: 8 (DW_TAG_const_type)
    <a43>   DW_AT_type        : <0xa35>
 <3><a47>: Abbrev Number: 16 (DW_TAG_subprogram)
    <a48>   DW_AT_external    : 1
    <a48>   DW_AT_name        : (indirect string, offset: 0x8c81): to_int_type
    <a4c>   DW_AT_decl_file   : 3
    <a4d>   DW_AT_decl_line   : 459
    <a4f>   DW_AT_decl_column : 7
    <a50>   DW_AT_linkage_name: (indirect string, offset: 0xb0c2): _ZNSt11char_traitsIcE11to_int_typeERKc
    <a54>   DW_AT_type        : <0xa35>
    <a58>   DW_AT_declaration : 1
    <a58>   DW_AT_sibling     : <0xa62>
 <4><a5c>: Abbrev Number: 1 (DW_TAG_formal_parameter)
    <a5d>   DW_AT_type        : <0x6c6c>
 <4><a61>: Abbrev Number: 0
 <3><a62>: Abbrev Number: 16 (DW_TAG_subprogram)
    <a63>   DW_AT_external    : 1
    <a63>   DW_AT_name        : (indirect string, offset: 0x8362): eq_int_type
    <a67>   DW_AT_decl_file   : 3
    <a68>   DW_AT_decl_line   : 463
    <a6a>   DW_AT_decl_column : 7
    <a6b>   DW_AT_linkage_name: (indirect string, offset: 0xa4ed): _ZNSt11char_traitsIcE11eq_int_typeERKiS2_
    <a6f>   DW_AT_type        : <0x6bec>
    <a73>   DW_AT_declaration : 1
    <a73>   DW_AT_sibling     : <0xa82>
 <4><a77>: Abbrev Number: 1 (DW_TAG_formal_parameter)
    <a78>   DW_AT_type        : <0x6c7b>
 <4><a7c>: Abbrev Number: 1 (DW_TAG_formal_parameter)
    <a7d>   DW_AT_type        : <0x6c7b>
 <4><a81>: Abbrev Number: 0
 <3><a82>: Abbrev Number: 140 (DW_TAG_subprogram)
    <a84>   DW_AT_external    : 1
    <a84>   DW_AT_name        : eof
    <a88>   DW_AT_decl_file   : 3
    <a89>   DW_AT_decl_line   : 467
    <a8b>   DW_AT_decl_column : 7
    <a8c>   DW_AT_linkage_name: (indirect string, offset: 0x11e9): _ZNSt11char_traitsIcE3eofEv
    <a90>   DW_AT_type        : <0xa35>
    <a94>   DW_AT_declaration : 1
 <3><a94>: Abbrev Number: 16 (DW_TAG_subprogram)
    <a95>   DW_AT_external    : 1
    <a95>   DW_AT_name        : (indirect string, offset: 0x6177): not_eof
    <a99>   DW_AT_decl_file   : 3
    <a9a>   DW_AT_decl_line   : 471
    <a9c>   DW_AT_decl_column : 7
    <a9d>   DW_AT_linkage_name: (indirect string, offset: 0x4f2): _ZNSt11char_traitsIcE7not_eofERKi
    <aa1>   DW_AT_type        : <0xa35>
    <aa5>   DW_AT_declaration : 1
    <aa5>   DW_AT_sibling     : <0xaaf>
 <4><aa9>: Abbrev Number: 1 (DW_TAG_formal_parameter)
    <aaa>   DW_AT_type        : <0x6c7b>
 <4><aae>: Abbrev Number: 0
 <3><aaf>: Abbrev Number: 9 (DW_TAG_template_type_param)
    <ab0>   DW_AT_name        : (indirect string, offset: 0xeff): _CharT
    <ab4>   DW_AT_type        : <0x10c>
 <3><ab8>: Abbrev Number: 0
 <2><ab9>: Abbrev Number: 4 (DW_TAG_imported_declaration)
    <aba>   DW_AT_decl_file   : 35
    <abb>   DW_AT_decl_line   : 47
    <abc>   DW_AT_decl_column : 11
    <abd>   DW_AT_import      : <0x6db2>	[Abbrev Number: 5 (DW_TAG_typedef)]
 <2><ac1>: Abbrev Number: 4 (DW_TAG_imported_declaration)
    <ac2>   DW_AT_decl_file   : 35
    <ac3>   DW_AT_decl_line   : 48
    <ac4>   DW_AT_decl_column : 11
    <ac5>   DW_AT_import      : <0x6dbe>	[Abbrev Number: 5 (DW_TAG_typedef)]
 <2><ac9>: Abbrev Number: 4 (DW_TAG_imported_declaration)
    <aca>   DW_AT_decl_file   : 35
    <acb>   DW_AT_decl_line   : 49
    <acc>   DW_AT_decl_column : 11
    <acd>   DW_AT_import      : <0x6dca>	[Abbrev Number: 5 (DW_TAG_typedef)]
 <2><ad1>: Abbrev Number: 4 (DW_TAG_imported_declaration)
    <ad2>   DW_AT_decl_file   : 35
    <ad3>   DW_AT_decl_line   : 50
    <ad4>   DW_AT_decl_column : 11
    <ad5>   DW_AT_import      : <0x6dd6>	[Abbrev Number: 5 (DW_TAG_typedef)]
 <2><ad9>: Abbrev Number: 4 (DW_TAG_imported_declaration)
    <ada>   DW_AT_decl_file   : 35
    <adb>   DW_AT_decl_line   : 52
    <adc>   DW_AT_decl_column : 11
    <add>   DW_AT_import      : <0x6e72>	[Abbrev Number: 5 (DW_TAG_typedef)]
 <2><ae1>: Abbrev Number: 4 (DW_TAG_imported_declaration)
    <ae2>   DW_AT_decl_file   : 35
    <ae3>   DW_AT_decl_line   : 53
    <ae4>   DW_AT_decl_column : 11
    <ae5>   DW_AT_import      : <0x6e7e>	[Abbrev Number: 5 (DW_TAG_typedef)]
 <2><ae9>: Abbrev Number: 4 (DW_TAG_imported_declaration)
    <aea>   DW_AT_decl_file   : 35
    <aeb>   DW_AT_decl_line   : 54
    <aec>   DW_AT_decl_column : 11
    <aed>   DW_AT_import      : <0x6e8a>	[Abbrev Number: 5 (DW_TAG_typedef)]
 <2><af1>: Abbrev Number: 4 (DW_TAG_imported_declaration)
    <af2>   DW_AT_decl_file   : 35
    <af3>   DW_AT_decl_line   : 55
    <af4>   DW_AT_decl_column : 11
    <af5>   DW_AT_import      : <0x6e96>	[Abbrev Number: 5 (DW_TAG_typedef)]
 <2><af9>: Abbrev Number: 4 (DW_TAG_imported_declaration)
    <afa>   DW_AT_decl_file   : 35
    <afb>   DW_AT_decl_line   : 57
    <afc>   DW_AT_decl_column : 11
    <afd>   DW_AT_import      : <0x6e12>	[Abbrev Number: 5 (DW_TAG_typedef)]
 <2><b01>: Abbrev Number: 4 (DW_TAG_imported_declaration)
    <b02>   DW_AT_decl_file   : 35
    <b03>   DW_AT_decl_line   : 58
    <b04>   DW_AT_decl_column : 11
    <b05>   DW_AT_import      : <0x6e1e>	[Abbrev Number: 5 (DW_TAG_typedef)]
 <2><b09>: Abbrev Number: 4 (DW_TAG_imported_declaration)
    <b0a>   DW_AT_decl_file   : 35
    <b0b>   DW_AT_decl_line   : 59
    <b0c>   DW_AT_decl_column : 11
    <b0d>   DW_AT_import      : <0x6e2a>	[Abbrev Number: 5 (DW_TAG_typedef)]
 <2><b11>: Abbrev Number: 4 (DW_TAG_imported_declaration)
    <b12>   DW_AT_decl_file   : 35
    <b13>   DW_AT_decl_line   : 60
    <b14>   DW_AT_decl_column : 11
    <b15>   DW_AT_import      : <0x6e36>	[Abbrev Number: 5 (DW_TAG_typedef)]
 <2><b19>: Abbrev Number: 4 (DW_TAG_imported_declaration)
    <b1a>   DW_AT_decl_file   : 35
    <b1b>   DW_AT_decl_line   : 62
    <b1c>   DW_AT_decl_column : 11
    <b1d>   DW_AT_import      : <0x6eea>	[Abbrev Number: 5 (DW_TAG_typedef)]
 <2><b21>: Abbrev Number: 4 (DW_TAG_imported_declaration)
    <b22>   DW_AT_decl_file   : 35
    <b23>   DW_AT_decl_line   : 63
    <b24>   DW_AT_decl_column : 11
    <b25>   DW_AT_import      : <0x6ed2>	[Abbrev Number: 5 (DW_TAG_typedef)]
 <2><b29>: Abbrev Number: 4 (DW_TAG_imported_declaration)
    <b2a>   DW_AT_decl_file   : 35
    <b2b>   DW_AT_decl_line   : 65
    <b2c>   DW_AT_decl_column : 11
    <b2d>   DW_AT_import      : <0x6de2>	[Abbrev Number: 5 (DW_TAG_typedef)]
 <2><b31>: Abbrev Number: 4 (DW_TAG_imported_declaration)
    <b32>   DW_AT_decl_file   : 35
    <b33>   DW_AT_decl_line   : 66
    <b34>   DW_AT_decl_column : 11
    <b35>   DW_AT_import      : <0x6dee>	[Abbrev Number: 5 (DW_TAG_typedef)]
 <2><b39>: Abbrev Number: 4 (DW_TAG_imported_declaration)
    <b3a>   DW_AT_decl_file   : 35
    <b3b>   DW_AT_decl_line   : 67
    <b3c>   DW_AT_decl_column : 11
    <b3d>   DW_AT_import      : <0x6dfa>	[Abbrev Number: 5 (DW_TAG_typedef)]
 <2><b41>: Abbrev Number: 4 (DW_TAG_imported_declaration)
    <b42>   DW_AT_decl_file   : 35
    <b43>   DW_AT_decl_line   : 68
    <b44>   DW_AT_decl_column : 11
    <b45>   DW_AT_import      : <0x6e06>	[Abbrev Number: 5 (DW_TAG_typedef)]
 <2><b49>: Abbrev Number: 4 (DW_TAG_imported_declaration)
    <b4a>   DW_AT_decl_file   : 35
    <b4b>   DW_AT_decl_line   : 70
    <b4c>   DW_AT_decl_column : 11
    <b4d>   DW_AT_import      : <0x6ea2>	[Abbrev Number: 5 (DW_TAG_typedef)]
 <2><b51>: Abbrev Number: 4 (DW_TAG_imported_declaration)
    <b52>   DW_AT_decl_file   : 35
    <b53>   DW_AT_decl_line   : 71
    <b54>   DW_AT_decl_column : 11
    <b55>   DW_AT_import      : <0x6eae>	[Abbrev Number: 5 (DW_TAG_typedef)]
 <2><b59>: Abbrev Number: 4 (DW_TAG_imported_declaration)
    <b5a>   DW_AT_decl_file   : 35
    <b5b>   DW_AT_decl_line   : 72
    <b5c>   DW_AT_decl_column : 11
    <b5d>   DW_AT_import      : <0x6eba>	[Abbrev Number: 5 (DW_TAG_typedef)]
 <2><b61>: Abbrev Number: 4 (DW_TAG_imported_declaration)
    <b62>   DW_AT_decl_file   : 35
    <b63>   DW_AT_decl_line   : 73
    <b64>   DW_AT_decl_column : 11
    <b65>   DW_AT_import      : <0x6ec6>	[Abbrev Number: 5 (DW_TAG_typedef)]
 <2><b69>: Abbrev Number: 4 (DW_TAG_imported_declaration)
    <b6a>   DW_AT_decl_file   : 35
    <b6b>   DW_AT_decl_line   : 75
    <b6c>   DW_AT_decl_column : 11
    <b6d>   DW_AT_import      : <0x6e42>	[Abbrev Number: 5 (DW_TAG_typedef)]
 <2><b71>: Abbrev Number: 4 (DW_TAG_imported_declaration)
    <b72>   DW_AT_decl_file   : 35
    <b73>   DW_AT_decl_line   : 76
    <b74>   DW_AT_decl_column : 11
    <b75>   DW_AT_import      : <0x6e4e>	[Abbrev Number: 5 (DW_TAG_typedef)]
 <2><b79>: Abbrev Number: 4 (DW_TAG_imported_declaration)
    <b7a>   DW_AT_decl_file   : 35
    <b7b>   DW_AT_decl_line   : 77
    <b7c>   DW_AT_decl_column : 11
    <b7d>   DW_AT_import      : <0x6e5a>	[Abbrev Number: 5 (DW_TAG_typedef)]
 <2><b81>: Abbrev Number: 4 (DW_TAG_imported_declaration)
    <b82>   DW_AT_decl_file   : 35
    <b83>   DW_AT_decl_line   : 78
    <b84>   DW_AT_decl_column : 11
    <b85>   DW_AT_import      : <0x6e66>	[Abbrev Number: 5 (DW_TAG_typedef)]
 <2><b89>: Abbrev Number: 4 (DW_TAG_imported_declaration)
    <b8a>   DW_AT_decl_file   : 35
    <b8b>   DW_AT_decl_line   : 80
    <b8c>   DW_AT_decl_column : 11
    <b8d>   DW_AT_import      : <0x6ef6>	[Abbrev Number: 5 (DW_TAG_typedef)]
 <2><b91>: Abbrev Number: 4 (DW_TAG_imported_declaration)
    <b92>   DW_AT_decl_file   : 35
    <b93>   DW_AT_decl_line   : 81
    <b94>   DW_AT_decl_column : 11
    <b95>   DW_AT_import      : <0x6ede>	[Abbrev Number: 5 (DW_TAG_typedef)]
 <2><b99>: Abbrev Number: 4 (DW_TAG_imported_declaration)
    <b9a>   DW_AT_decl_file   : 36
    <b9b>   DW_AT_decl_line   : 53
    <b9c>   DW_AT_decl_column : 11
    <b9d>   DW_AT_import      : <0x6f02>	[Abbrev Number: 22 (DW_TAG_structure_type)]
 <2><ba1>: Abbrev Number: 4 (DW_TAG_imported_declaration)
    <ba2>   DW_AT_decl_file   : 36
    <ba3>   DW_AT_decl_line   : 54
    <ba4>   DW_AT_decl_column : 11
    <ba5>   DW_AT_import      : <0x7048>	[Abbrev Number: 14 (DW_TAG_subprogram)]
 <2><ba9>: Abbrev Number: 4 (DW_TAG_imported_declaration)
    <baa>   DW_AT_decl_file   : 36
    <bab>   DW_AT_decl_line   : 55
    <bac>   DW_AT_decl_column : 11
    <bad>   DW_AT_import      : <0x7063>	[Abbrev Number: 97 (DW_TAG_subprogram)]
 <2><bb1>: Abbrev Number: 26 (DW_TAG_typedef)
    <bb2>   DW_AT_name        : (indirect string, offset: 0xae70): ptrdiff_t
    <bb6>   DW_AT_decl_file   : 32
    <bb7>   DW_AT_decl_line   : 281
    <bb9>   DW_AT_decl_column : 28
    <bba>   DW_AT_type        : <0x5a67>
 <2><bbe>: Abbrev Number: 5 (DW_TAG_typedef)
    <bbf>   DW_AT_name        : (indirect string, offset: 0x1f6b): true_type
    <bc3>   DW_AT_decl_file   : 31
    <bc4>   DW_AT_decl_line   : 83
    <bc5>   DW_AT_decl_column : 9
    <bc6>   DW_AT_type        : <0x5d9>
 <2><bca>: Abbrev Number: 40 (DW_TAG_class_type)
    <bcb>   DW_AT_name        : (indirect string, offset: 0x6ea7): allocator<char>
    <bcf>   DW_AT_byte_size   : 1
    <bd0>   DW_AT_decl_file   : 9
    <bd1>   DW_AT_decl_line   : 124
    <bd2>   DW_AT_decl_column : 11
    <bd3>   DW_AT_sibling     : <0xc53>
 <3><bd7>: Abbrev Number: 89 (DW_TAG_inheritance)
    <bd8>   DW_AT_type        : <0x5eec>
    <bdc>   DW_AT_data_member_location: 0
    <bdc>   DW_AT_accessibility: 1	(public)
 <3><bdd>: Abbrev Number: 23 (DW_TAG_subprogram)
    <bde>   DW_AT_external    : 1
    <bde>   DW_AT_name        : (indirect string, offset: 0xa34a): allocator
    <be2>   DW_AT_decl_file   : 9
    <be3>   DW_AT_decl_line   : 156
    <be4>   DW_AT_decl_column : 7
    <be5>   DW_AT_linkage_name: (indirect string, offset: 0x68ef): _ZNSaIcEC4Ev
    <be9>   DW_AT_accessibility: 1	(public)
    <be9>   DW_AT_declaration : 1
    <be9>   DW_AT_object_pointer: <0xbf1>
    <bed>   DW_AT_sibling     : <0xbf7>
 <4><bf1>: Abbrev Number: 2 (DW_TAG_formal_parameter)
    <bf2>   DW_AT_type        : <0x70de>
    <bf6>   DW_AT_artificial  : 1
 <4><bf6>: Abbrev Number: 0
 <3><bf7>: Abbrev Number: 23 (DW_TAG_subprogram)
    <bf8>   DW_AT_external    : 1
    <bf8>   DW_AT_name        : (indirect string, offset: 0xa34a): allocator
    <bfc>   DW_AT_decl_file   : 9
    <bfd>   DW_AT_decl_line   : 159
    <bfe>   DW_AT_decl_column : 7
    <bff>   DW_AT_linkage_name: (indirect string, offset: 0x8974): _ZNSaIcEC4ERKS_
    <c03>   DW_AT_accessibility: 1	(public)
    <c03>   DW_AT_declaration : 1
    <c03>   DW_AT_object_pointer: <0xc0b>
    <c07>   DW_AT_sibling     : <0xc16>
 <4><c0b>: Abbrev Number: 2 (DW_TAG_formal_parameter)
    <c0c>   DW_AT_type        : <0x70de>
    <c10>   DW_AT_artificial  : 1
 <4><c10>: Abbrev Number: 1 (DW_TAG_formal_parameter)
    <c11>   DW_AT_type        : <0x70e8>
 <4><c15>: Abbrev Number: 0
 <3><c16>: Abbrev Number: 90 (DW_TAG_subprogram)
    <c17>   DW_AT_external    : 1
    <c17>   DW_AT_name        : (indirect string, offset: 0x9b63): operator=
    <c1b>   DW_AT_decl_file   : 9
    <c1c>   DW_AT_decl_line   : 164
    <c1d>   DW_AT_decl_column : 18
    <c1e>   DW_AT_linkage_name: (indirect string, offset: 0xa08e): _ZNSaIcEaSERKS_
    <c22>   DW_AT_type        : <0x70ed>
    <c26>   DW_AT_accessibility: 1	(public)
    <c26>   DW_AT_declaration : 1
    <c26>   DW_AT_defaulted   : 1	(in class)
    <c26>   DW_AT_object_pointer: <0xc2e>
    <c2a>   DW_AT_sibling     : <0xc39>
 <4><c2e>: Abbrev Number: 2 (DW_TAG_formal_parameter)
    <c2f>   DW_AT_type        : <0x70de>
    <c33>   DW_AT_artificial  : 1
 <4><c33>: Abbrev Number: 1 (DW_TAG_formal_parameter)
    <c34>   DW_AT_type        : <0x70e8>
 <4><c38>: Abbrev Number: 0
 <3><c39>: Abbrev Number: 105 (DW_TAG_subprogram)
    <c3a>   DW_AT_external    : 1
    <c3a>   DW_AT_name        : (indirect string, offset: 0x700b): ~allocator
    <c3e>   DW_AT_decl_file   : 9
    <c3e>   DW_AT_decl_line   : 174
    <c3f>   DW_AT_decl_column : 7
    <c3f>   DW_AT_linkage_name: (indirect string, offset: 0x36be): _ZNSaIcED4Ev
    <c43>   DW_AT_accessibility: 1	(public)
    <c43>   DW_AT_declaration : 1
    <c43>   DW_AT_object_pointer: <0xc47>
 <4><c47>: Abbrev Number: 2 (DW_TAG_formal_parameter)
    <c48>   DW_AT_type        : <0x70de>
    <c4c>   DW_AT_artificial  : 1
 <4><c4c>: Abbrev Number: 2 (DW_TAG_formal_parameter)
    <c4d>   DW_AT_type        : <0x118>
    <c51>   DW_AT_artificial  : 1
 <4><c51>: Abbrev Number: 0
 <3><c52>: Abbrev Number: 0
 <2><c53>: Abbrev Number: 8 (DW_TAG_const_type)
    <c54>   DW_AT_type        : <0xbca>
 <2><c58>: Abbrev Number: 40 (DW_TAG_class_type)
    <c59>   DW_AT_name        : (indirect string, offset: 0xaea2): basic_string_view<char, std::char_traits<char> >
    <c5d>   DW_AT_byte_size   : 16
    <c5e>   DW_AT_decl_file   : 37
    <c5f>   DW_AT_decl_line   : 98
    <c60>   DW_AT_decl_column : 11
    <c61>   DW_AT_sibling     : <0x159e>
 <3><c65>: Abbrev Number: 19 (DW_TAG_typedef)
    <c66>   DW_AT_name        : (indirect string, offset: 0x9f9f): size_type
    <c6a>   DW_AT_decl_file   : 37
    <c6b>   DW_AT_decl_line   : 117
    <c6c>   DW_AT_decl_column : 13
    <c6d>   DW_AT_type        : <0x653>
    <c71>   DW_AT_accessibility: 1	(public)
 <3><c72>: Abbrev Number: 23 (DW_TAG_subprogram)
    <c73>   DW_AT_external    : 1
    <c73>   DW_AT_name        : (indirect string, offset: 0x1379): basic_string_view
    <c77>   DW_AT_decl_file   : 37
    <c78>   DW_AT_decl_line   : 124
    <c79>   DW_AT_decl_column : 7
    <c7a>   DW_AT_linkage_name: (indirect string, offset: 0x21fc): _ZNSt17basic_string_viewIcSt11char_traitsIcEEC4Ev
    <c7e>   DW_AT_accessibility: 1	(public)
    <c7e>   DW_AT_declaration : 1
    <c7e>   DW_AT_object_pointer: <0xc86>
    <c82>   DW_AT_sibling     : <0xc8c>
 <4><c86>: Abbrev Number: 2 (DW_TAG_formal_parameter)
    <c87>   DW_AT_type        : <0x70f2>
    <c8b>   DW_AT_artificial  : 1
 <4><c8b>: Abbrev Number: 0
 <3><c8c>: Abbrev Number: 141 (DW_TAG_subprogram)
    <c8e>   DW_AT_external    : 1
    <c8e>   DW_AT_name        : (indirect string, offset: 0x1379): basic_string_view
    <c92>   DW_AT_decl_file   : 37
    <c93>   DW_AT_decl_line   : 128
    <c94>   DW_AT_decl_column : 17
    <c95>   DW_AT_linkage_name: (indirect string, offset: 0x9865): _ZNSt17basic_string_viewIcSt11char_traitsIcEEC4ERKS2_
    <c99>   DW_AT_accessibility: 1	(public)
    <c9a>   DW_AT_declaration : 1
    <c9a>   DW_AT_defaulted   : 1	(in class)
    <c9b>   DW_AT_object_pointer: <0xca3>
    <c9f>   DW_AT_sibling     : <0xcae>
 <4><ca3>: Abbrev Number: 2 (DW_TAG_formal_parameter)
    <ca4>   DW_AT_type        : <0x70f2>
    <ca8>   DW_AT_artificial  : 1
 <4><ca8>: Abbrev Number: 1 (DW_TAG_formal_parameter)
    <ca9>   DW_AT_type        : <0x70f7>
 <4><cad>: Abbrev Number: 0
 <3><cae>: Abbrev Number: 23 (DW_TAG_subprogram)
    <caf>   DW_AT_external    : 1
    <caf>   DW_AT_name        : (indirect string, offset: 0x1379): basic_string_view
    <cb3>   DW_AT_decl_file   : 37
    <cb4>   DW_AT_decl_line   : 131
    <cb5>   DW_AT_decl_column : 7
    <cb6>   DW_AT_linkage_name: (indirect string, offset: 0x83ad): _ZNSt17basic_string_viewIcSt11char_traitsIcEEC4EPKc
    <cba>   DW_AT_accessibility: 1	(public)
    <cba>   DW_AT_declaration : 1
    <cba>   DW_AT_object_pointer: <0xcc2>
    <cbe>   DW_AT_sibling     : <0xccd>
 <4><cc2>: Abbrev Number: 2 (DW_TAG_formal_parameter)
    <cc3>   DW_AT_type        : <0x70f2>
    <cc7>   DW_AT_artificial  : 1
 <4><cc7>: Abbrev Number: 1 (DW_TAG_formal_parameter)
    <cc8>   DW_AT_type        : <0x2f2>
 <4><ccc>: Abbrev Number: 0
 <3><ccd>: Abbrev Number: 23 (DW_TAG_subprogram)
    <cce>   DW_AT_external    : 1
    <cce>   DW_AT_name        : (indirect string, offset: 0x1379): basic_string_view
    <cd2>   DW_AT_decl_file   : 37
    <cd3>   DW_AT_decl_line   : 137
    <cd4>   DW_AT_decl_column : 7
    <cd5>   DW_AT_linkage_name: (indirect string, offset: 0xafad): _ZNSt17basic_string_viewIcSt11char_traitsIcEEC4EPKcm
    <cd9>   DW_AT_accessibility: 1	(public)
    <cd9>   DW_AT_declaration : 1
    <cd9>   DW_AT_object_pointer: <0xce1>
    <cdd>   DW_AT_sibling     : <0xcf1>
 <4><ce1>: Abbrev Number: 2 (DW_TAG_formal_parameter)
    <ce2>   DW_AT_type        : <0x70f2>
    <ce6>   DW_AT_artificial  : 1
 <4><ce6>: Abbrev Number: 1 (DW_TAG_formal_parameter)
    <ce7>   DW_AT_type        : <0x2f2>
 <4><ceb>: Abbrev Number: 1 (DW_TAG_formal_parameter)
    <cec>   DW_AT_type        : <0xc65>
 <4><cf0>: Abbrev Number: 0
 <3><cf1>: Abbrev Number: 90 (DW_TAG_subprogram)
    <cf2>   DW_AT_external    : 1
    <cf2>   DW_AT_name        : (indirect string, offset: 0x9b63): operator=
    <cf6>   DW_AT_decl_file   : 37
    <cf7>   DW_AT_decl_line   : 172
    <cf8>   DW_AT_decl_column : 7
    <cf9>   DW_AT_linkage_name: (indirect string, offset: 0x4754): _ZNSt17basic_string_viewIcSt11char_traitsIcEEaSERKS2_
    <cfd>   DW_AT_type        : <0x70fc>
    <d01>   DW_AT_accessibility: 1	(public)
    <d01>   DW_AT_declaration : 1
    <d01>   DW_AT_defaulted   : 1	(in class)
    <d01>   DW_AT_object_pointer: <0xd09>
    <d05>   DW_AT_sibling     : <0xd14>
 <4><d09>: Abbrev Number: 2 (DW_TAG_formal_parameter)
    <d0a>   DW_AT_type        : <0x70f2>
    <d0e>   DW_AT_artificial  : 1
 <4><d0e>: Abbrev Number: 1 (DW_TAG_formal_parameter)
    <d0f>   DW_AT_type        : <0x70f7>
 <4><d13>: Abbrev Number: 0
 <3><d14>: Abbrev Number: 19 (DW_TAG_typedef)
    <d15>   DW_AT_name        : (indirect string, offset: 0x5905): const_iterator
    <d19>   DW_AT_decl_file   : 37
    <d1a>   DW_AT_decl_line   : 113
    <d1b>   DW_AT_decl_column : 13
    <d1c>   DW_AT_type        : <0x7101>
    <d20>   DW_AT_accessibility: 1	(public)
 <3><d21>: Abbrev Number: 19 (DW_TAG_typedef)
    <d22>   DW_AT_name        : (indirect string, offset: 0x2920): value_type
    <d26>   DW_AT_decl_file   : 37
    <d27>   DW_AT_decl_line   : 108
    <d28>   DW_AT_decl_column : 13
    <d29>   DW_AT_type        : <0x10c>
    <d2d>   DW_AT_accessibility: 1	(public)
 <3><d2e>: Abbrev Number: 8 (DW_TAG_const_type)
    <d2f>   DW_AT_type        : <0xd21>
 <3><d33>: Abbrev Number: 20 (DW_TAG_subprogram)
    <d34>   DW_AT_external    : 1
    <d34>   DW_AT_name        : (indirect string, offset: 0x5a10): begin
    <d38>   DW_AT_decl_file   : 37
    <d39>   DW_AT_decl_line   : 177
    <d3a>   DW_AT_decl_column : 7
    <d3b>   DW_AT_linkage_name: (indirect string, offset: 0x4b4d): _ZNKSt17basic_string_viewIcSt11char_traitsIcEE5beginEv
    <d3f>   DW_AT_type        : <0xd14>
    <d43>   DW_AT_accessibility: 1	(public)
    <d44>   DW_AT_declaration : 1
    <d44>   DW_AT_object_pointer: <0xd4c>
    <d48>   DW_AT_sibling     : <0xd52>
 <4><d4c>: Abbrev Number: 2 (DW_TAG_formal_parameter)
    <d4d>   DW_AT_type        : <0x7106>
    <d51>   DW_AT_artificial  : 1
 <4><d51>: Abbrev Number: 0
 <3><d52>: Abbrev Number: 54 (DW_TAG_subprogram)
    <d53>   DW_AT_external    : 1
    <d53>   DW_AT_name        : end
    <d57>   DW_AT_decl_file   : 37
    <d58>   DW_AT_decl_line   : 181
    <d59>   DW_AT_decl_column : 7
    <d59>   DW_AT_linkage_name: (indirect string, offset: 0xace7): _ZNKSt17basic_string_viewIcSt11char_traitsIcEE3endEv
    <d5d>   DW_AT_type        : <0xd14>
    <d61>   DW_AT_accessibility: 1	(public)
    <d61>   DW_AT_declaration : 1
    <d61>   DW_AT_object_pointer: <0xd69>
    <d65>   DW_AT_sibling     : <0xd6f>
 <4><d69>: Abbrev Number: 2 (DW_TAG_formal_parameter)
    <d6a>   DW_AT_type        : <0x7106>
    <d6e>   DW_AT_artificial  : 1
 <4><d6e>: Abbrev Number: 0
 <3><d6f>: Abbrev Number: 20 (DW_TAG_subprogram)
    <d70>   DW_AT_external    : 1
    <d70>   DW_AT_name        : (indirect string, offset: 0x1c31): cbegin
    <d74>   DW_AT_decl_file   : 37
    <d75>   DW_AT_decl_line   : 185
    <d76>   DW_AT_decl_column : 7
    <d77>   DW_AT_linkage_name: (indirect string, offset: 0xa360): _ZNKSt17basic_string_viewIcSt11char_traitsIcEE6cbeginEv
    <d7b>   DW_AT_type        : <0xd14>
    <d7f>   DW_AT_accessibility: 1	(public)
    <d80>   DW_AT_declaration : 1
    <d80>   DW_AT_object_pointer: <0xd88>
    <d84>   DW_AT_sibling     : <0xd8e>
 <4><d88>: Abbrev Number: 2 (DW_TAG_formal_parameter)
    <d89>   DW_AT_type        : <0x7106>
    <d8d>   DW_AT_artificial  : 1
 <4><d8d>: Abbrev Number: 0
 <3><d8e>: Abbrev Number: 20 (DW_TAG_subprogram)
    <d8f>   DW_AT_external    : 1
    <d8f>   DW_AT_name        : (indirect string, offset: 0x39bb): cend
    <d93>   DW_AT_decl_file   : 37
    <d94>   DW_AT_decl_line   : 189
    <d95>   DW_AT_decl_column : 7
    <d96>   DW_AT_linkage_name: (indirect string, offset: 0x4ba4): _ZNKSt17basic_string_viewIcSt11char_traitsIcEE4cendEv
    <d9a>   DW_AT_type        : <0xd14>
    <d9e>   DW_AT_accessibility: 1	(public)
    <d9f>   DW_AT_declaration : 1
    <d9f>   DW_AT_object_pointer: <0xda7>
    <da3>   DW_AT_sibling     : <0xdad>
 <4><da7>: Abbrev Number: 2 (DW_TAG_formal_parameter)
    <da8>   DW_AT_type        : <0x7106>
    <dac>   DW_AT_artificial  : 1
 <4><dac>: Abbrev Number: 0
 <3><dad>: Abbrev Number: 19 (DW_TAG_typedef)
    <dae>   DW_AT_name        : (indirect string, offset: 0x3a74): const_reverse_iterator
    <db2>   DW_AT_decl_file   : 37
    <db3>   DW_AT_decl_line   : 115
    <db4>   DW_AT_decl_column : 13
    <db5>   DW_AT_type        : <0x15a3>
    <db9>   DW_AT_accessibility: 1	(public)
 <3><dba>: Abbrev Number: 20 (DW_TAG_subprogram)
    <dbb>   DW_AT_external    : 1
    <dbb>   DW_AT_name        : (indirect string, offset: 0x983f): rbegin
    <dbf>   DW_AT_decl_file   : 37
    <dc0>   DW_AT_decl_line   : 193
    <dc1>   DW_AT_decl_column : 7
    <dc2>   DW_AT_linkage_name: (indirect string, offset: 0x215): _ZNKSt17basic_string_viewIcSt11char_traitsIcEE6rbeginEv
    <dc6>   DW_AT_type        : <0xdad>
    <dca>   DW_AT_accessibility: 1	(public)
    <dcb>   DW_AT_declaration : 1
    <dcb>   DW_AT_object_pointer: <0xdd3>
    <dcf>   DW_AT_sibling     : <0xdd9>
 <4><dd3>: Abbrev Number: 2 (DW_TAG_formal_parameter)
    <dd4>   DW_AT_type        : <0x7106>
    <dd8>   DW_AT_artificial  : 1
 <4><dd8>: Abbrev Number: 0
 <3><dd9>: Abbrev Number: 20 (DW_TAG_subprogram)
    <dda>   DW_AT_external    : 1
    <dda>   DW_AT_name        : (indirect string, offset: 0x146d): rend
    <dde>   DW_AT_decl_file   : 37
    <ddf>   DW_AT_decl_line   : 197
    <de0>   DW_AT_decl_column : 7
    <de1>   DW_AT_linkage_name: (indirect string, offset: 0x158c): _ZNKSt17basic_string_viewIcSt11char_traitsIcEE4rendEv
    <de5>   DW_AT_type        : <0xdad>
    <de9>   DW_AT_accessibility: 1	(public)
    <dea>   DW_AT_declaration : 1
    <dea>   DW_AT_object_pointer: <0xdf2>
    <dee>   DW_AT_sibling     : <0xdf8>
 <4><df2>: Abbrev Number: 2 (DW_TAG_formal_parameter)
    <df3>   DW_AT_type        : <0x7106>
    <df7>   DW_AT_artificial  : 1
 <4><df7>: Abbrev Number: 0
 <3><df8>: Abbrev Number: 20 (DW_TAG_subprogram)
    <df9>   DW_AT_external    : 1
    <df9>   DW_AT_name        : (indirect string, offset: 0x7ec): crbegin
    <dfd>   DW_AT_decl_file   : 37
    <dfe>   DW_AT_decl_line   : 201
    <dff>   DW_AT_decl_column : 7
    <e00>   DW_AT_linkage_name: (indirect string, offset: 0x2040): _ZNKSt17basic_string_viewIcSt11char_traitsIcEE7crbeginEv
    <e04>   DW_AT_type        : <0xdad>
    <e08>   DW_AT_accessibility: 1	(public)
    <e09>   DW_AT_declaration : 1
    <e09>   DW_AT_object_pointer: <0xe11>
    <e0d>   DW_AT_sibling     : <0xe17>
 <4><e11>: Abbrev Number: 2 (DW_TAG_formal_parameter)
    <e12>   DW_AT_type        : <0x7106>
    <e16>   DW_AT_artificial  : 1
 <4><e16>: Abbrev Number: 0
 <3><e17>: Abbrev Number: 20 (DW_TAG_subprogram)
    <e18>   DW_AT_external    : 1
    <e18>   DW_AT_name        : (indirect string, offset: 0xaf21): crend
    <e1c>   DW_AT_decl_file   : 37
    <e1d>   DW_AT_decl_line   : 205
    <e1e>   DW_AT_decl_column : 7
    <e1f>   DW_AT_linkage_name: (indirect string, offset: 0x281d): _ZNKSt17basic_string_viewIcSt11char_traitsIcEE5crendEv
    <e23>   DW_AT_type        : <0xdad>
    <e27>   DW_AT_accessibility: 1	(public)
    <e28>   DW_AT_declaration : 1
    <e28>   DW_AT_object_pointer: <0xe30>
    <e2c>   DW_AT_sibling     : <0xe36>
 <4><e30>: Abbrev Number: 2 (DW_TAG_formal_parameter)
    <e31>   DW_AT_type        : <0x7106>
    <e35>   DW_AT_artificial  : 1
 <4><e35>: Abbrev Number: 0
 <3><e36>: Abbrev Number: 20 (DW_TAG_subprogram)
    <e37>   DW_AT_external    : 1
    <e37>   DW_AT_name        : (indirect string, offset: 0x1581): size
    <e3b>   DW_AT_decl_file   : 37
    <e3c>   DW_AT_decl_line   : 211
    <e3d>   DW_AT_decl_column : 7
    <e3e>   DW_AT_linkage_name: (indirect string, offset: 0x2933): _ZNKSt17basic_string_viewIcSt11char_traitsIcEE4sizeEv
    <e42>   DW_AT_type        : <0xc65>
    <e46>   DW_AT_accessibility: 1	(public)
    <e47>   DW_AT_declaration : 1
    <e47>   DW_AT_object_pointer: <0xe4f>
    <e4b>   DW_AT_sibling     : <0xe55>
 <4><e4f>: Abbrev Number: 2 (DW_TAG_formal_parameter)
    <e50>   DW_AT_type        : <0x7106>
    <e54>   DW_AT_artificial  : 1
 <4><e54>: Abbrev Number: 0
 <3><e55>: Abbrev Number: 20 (DW_TAG_subprogram)
    <e56>   DW_AT_external    : 1
    <e56>   DW_AT_name        : (indirect string, offset: 0xb11a): length
    <e5a>   DW_AT_decl_file   : 37
    <e5b>   DW_AT_decl_line   : 215
    <e5c>   DW_AT_decl_column : 7
    <e5d>   DW_AT_linkage_name: (indirect string, offset: 0x5bc9): _ZNKSt17basic_string_viewIcSt11char_traitsIcEE6lengthEv
    <e61>   DW_AT_type        : <0xc65>
    <e65>   DW_AT_accessibility: 1	(public)
    <e66>   DW_AT_declaration : 1
    <e66>   DW_AT_object_pointer: <0xe6e>
    <e6a>   DW_AT_sibling     : <0xe74>
 <4><e6e>: Abbrev Number: 2 (DW_TAG_formal_parameter)
    <e6f>   DW_AT_type        : <0x7106>
    <e73>   DW_AT_artificial  : 1
 <4><e73>: Abbrev Number: 0
 <3><e74>: Abbrev Number: 20 (DW_TAG_subprogram)
    <e75>   DW_AT_external    : 1
    <e75>   DW_AT_name        : (indirect string, offset: 0x94df): max_size
    <e79>   DW_AT_decl_file   : 37
    <e7a>   DW_AT_decl_line   : 219
    <e7b>   DW_AT_decl_column : 7
    <e7c>   DW_AT_linkage_name: (indirect string, offset: 0x8859): _ZNKSt17basic_string_viewIcSt11char_traitsIcEE8max_sizeEv
    <e80>   DW_AT_type        : <0xc65>
    <e84>   DW_AT_accessibility: 1	(public)
    <e85>   DW_AT_declaration : 1
    <e85>   DW_AT_object_pointer: <0xe8d>
    <e89>   DW_AT_sibling     : <0xe93>
 <4><e8d>: Abbrev Number: 2 (DW_TAG_formal_parameter)
    <e8e>   DW_AT_type        : <0x7106>
    <e92>   DW_AT_artificial  : 1
 <4><e92>: Abbrev Number: 0
 <3><e93>: Abbrev Number: 20 (DW_TAG_subprogram)
    <e94>   DW_AT_external    : 1
    <e94>   DW_AT_name        : (indirect string, offset: 0x8924): empty
    <e98>   DW_AT_decl_file   : 37
    <e99>   DW_AT_decl_line   : 226
    <e9a>   DW_AT_decl_column : 7
    <e9b>   DW_AT_linkage_name: (indirect string, offset: 0x0): _ZNKSt17basic_string_viewIcSt11char_traitsIcEE5emptyEv
    <e9f>   DW_AT_type        : <0x6bec>
    <ea3>   DW_AT_accessibility: 1	(public)
    <ea4>   DW_AT_declaration : 1
    <ea4>   DW_AT_object_pointer: <0xeac>
    <ea8>   DW_AT_sibling     : <0xeb2>
 <4><eac>: Abbrev Number: 2 (DW_TAG_formal_parameter)
    <ead>   DW_AT_type        : <0x7106>
    <eb1>   DW_AT_artificial  : 1
 <4><eb1>: Abbrev Number: 0
 <3><eb2>: Abbrev Number: 19 (DW_TAG_typedef)
    <eb3>   DW_AT_name        : (indirect string, offset: 0x138b): const_reference
    <eb7>   DW_AT_decl_file   : 37
    <eb8>   DW_AT_decl_line   : 112
    <eb9>   DW_AT_decl_column : 13
    <eba>   DW_AT_type        : <0x710b>
    <ebe>   DW_AT_accessibility: 1	(public)
 <3><ebf>: Abbrev Number: 20 (DW_TAG_subprogram)
    <ec0>   DW_AT_external    : 1
    <ec0>   DW_AT_name        : (indirect string, offset: 0x8a4): operator[]
    <ec4>   DW_AT_decl_file   : 37
    <ec5>   DW_AT_decl_line   : 232
    <ec6>   DW_AT_decl_column : 7
    <ec7>   DW_AT_linkage_name: (indirect string, offset: 0x7b55): _ZNKSt17basic_string_viewIcSt11char_traitsIcEEixEm
    <ecb>   DW_AT_type        : <0xeb2>
    <ecf>   DW_AT_accessibility: 1	(public)
    <ed0>   DW_AT_declaration : 1
    <ed0>   DW_AT_object_pointer: <0xed8>
    <ed4>   DW_AT_sibling     : <0xee3>
 <4><ed8>: Abbrev Number: 2 (DW_TAG_formal_parameter)
    <ed9>   DW_AT_type        : <0x7106>
    <edd>   DW_AT_artificial  : 1
 <4><edd>: Abbrev Number: 1 (DW_TAG_formal_parameter)
    <ede>   DW_AT_type        : <0xc65>
 <4><ee2>: Abbrev Number: 0
 <3><ee3>: Abbrev Number: 54 (DW_TAG_subprogram)
    <ee4>   DW_AT_external    : 1
    <ee4>   DW_AT_name        : at
    <ee7>   DW_AT_decl_file   : 37
    <ee8>   DW_AT_decl_line   : 239
    <ee9>   DW_AT_decl_column : 7
    <ee9>   DW_AT_linkage_name: (indirect string, offset: 0x95a): _ZNKSt17basic_string_viewIcSt11char_traitsIcEE2atEm
    <eed>   DW_AT_type        : <0xeb2>
    <ef1>   DW_AT_accessibility: 1	(public)
    <ef1>   DW_AT_declaration : 1
    <ef1>   DW_AT_object_pointer: <0xef9>
    <ef5>   DW_AT_sibling     : <0xf04>
 <4><ef9>: Abbrev Number: 2 (DW_TAG_formal_parameter)
    <efa>   DW_AT_type        : <0x7106>
    <efe>   DW_AT_artificial  : 1
 <4><efe>: Abbrev Number: 1 (DW_TAG_formal_parameter)
    <eff>   DW_AT_type        : <0xc65>
 <4><f03>: Abbrev Number: 0
 <3><f04>: Abbrev Number: 20 (DW_TAG_subprogram)
    <f05>   DW_AT_external    : 1
    <f05>   DW_AT_name        : (indirect string, offset: 0xa70d): front
    <f09>   DW_AT_decl_file   : 37
    <f0a>   DW_AT_decl_line   : 249
    <f0b>   DW_AT_decl_column : 7
    <f0c>   DW_AT_linkage_name: (indirect string, offset: 0x31ce): _ZNKSt17basic_string_viewIcSt11char_traitsIcEE5frontEv
    <f10>   DW_AT_type        : <0xeb2>
    <f14>   DW_AT_accessibility: 1	(public)
    <f15>   DW_AT_declaration : 1
    <f15>   DW_AT_object_pointer: <0xf1d>
    <f19>   DW_AT_sibling     : <0xf23>
 <4><f1d>: Abbrev Number: 2 (DW_TAG_formal_parameter)
    <f1e>   DW_AT_type        : <0x7106>
    <f22>   DW_AT_artificial  : 1
 <4><f22>: Abbrev Number: 0
 <3><f23>: Abbrev Number: 3 (DW_TAG_subprogram)
    <f24>   DW_AT_external    : 1
    <f24>   DW_AT_name        : (indirect string, offset: 0x6c72): back
    <f28>   DW_AT_decl_file   : 37
    <f29>   DW_AT_decl_line   : 256
    <f2b>   DW_AT_decl_column : 7
    <f2c>   DW_AT_linkage_name: (indirect string, offset: 0xa398): _ZNKSt17basic_string_viewIcSt11char_traitsIcEE4backEv
    <f30>   DW_AT_type        : <0xeb2>
    <f34>   DW_AT_accessibility: 1	(public)
    <f35>   DW_AT_declaration : 1
    <f35>   DW_AT_object_pointer: <0xf3d>
    <f39>   DW_AT_sibling     : <0xf43>
 <4><f3d>: Abbrev Number: 2 (DW_TAG_formal_parameter)
    <f3e>   DW_AT_type        : <0x7106>
    <f42>   DW_AT_artificial  : 1
 <4><f42>: Abbrev Number: 0
 <3><f43>: Abbrev Number: 19 (DW_TAG_typedef)
    <f44>   DW_AT_name        : (indirect string, offset: 0x46e0): const_pointer
    <f48>   DW_AT_decl_file   : 37
    <f49>   DW_AT_decl_line   : 110
    <f4a>   DW_AT_decl_column : 13
    <f4b>   DW_AT_type        : <0x7101>
    <f4f>   DW_AT_accessibility: 1	(public)
 <3><f50>: Abbrev Number: 3 (DW_TAG_subprogram)
    <f51>   DW_AT_external    : 1
    <f51>   DW_AT_name        : (indirect string, offset: 0xa825): data
    <f55>   DW_AT_decl_file   : 37
    <f56>   DW_AT_decl_line   : 263
    <f58>   DW_AT_decl_column : 7
    <f59>   DW_AT_linkage_name: (indirect string, offset: 0x947b): _ZNKSt17basic_string_viewIcSt11char_traitsIcEE4dataEv
    <f5d>   DW_AT_type        : <0xf43>
    <f61>   DW_AT_accessibility: 1	(public)
    <f62>   DW_AT_declaration : 1
    <f62>   DW_AT_object_pointer: <0xf6a>
    <f66>   DW_AT_sibling     : <0xf70>
 <4><f6a>: Abbrev Number: 2 (DW_TAG_formal_parameter)
    <f6b>   DW_AT_type        : <0x7106>
    <f6f>   DW_AT_artificial  : 1
 <4><f6f>: Abbrev Number: 0
 <3><f70>: Abbrev Number: 12 (DW_TAG_subprogram)
    <f71>   DW_AT_external    : 1
    <f71>   DW_AT_name        : (indirect string, offset: 0x406b): remove_prefix
    <f75>   DW_AT_decl_file   : 37
    <f76>   DW_AT_decl_line   : 269
    <f78>   DW_AT_decl_column : 7
    <f79>   DW_AT_linkage_name: (indirect string, offset: 0x6c77): _ZNSt17basic_string_viewIcSt11char_traitsIcEE13remove_prefixEm
    <f7d>   DW_AT_accessibility: 1	(public)
    <f7e>   DW_AT_declaration : 1
    <f7e>   DW_AT_object_pointer: <0xf86>
    <f82>   DW_AT_sibling     : <0xf91>
 <4><f86>: Abbrev Number: 2 (DW_TAG_formal_parameter)
    <f87>   DW_AT_type        : <0x70f2>
    <f8b>   DW_AT_artificial  : 1
 <4><f8b>: Abbrev Number: 1 (DW_TAG_formal_parameter)
    <f8c>   DW_AT_type        : <0xc65>
 <4><f90>: Abbrev Number: 0
 <3><f91>: Abbrev Number: 12 (DW_TAG_subprogram)
    <f92>   DW_AT_external    : 1
    <f92>   DW_AT_name        : (indirect string, offset: 0x5366): remove_suffix
    <f96>   DW_AT_decl_file   : 37
    <f97>   DW_AT_decl_line   : 277
    <f99>   DW_AT_decl_column : 7
    <f9a>   DW_AT_linkage_name: (indirect string, offset: 0x54a5): _ZNSt17basic_string_viewIcSt11char_traitsIcEE13remove_suffixEm
    <f9e>   DW_AT_accessibility: 1	(public)
    <f9f>   DW_AT_declaration : 1
    <f9f>   DW_AT_object_pointer: <0xfa7>
    <fa3>   DW_AT_sibling     : <0xfb2>
 <4><fa7>: Abbrev Number: 2 (DW_TAG_formal_parameter)
    <fa8>   DW_AT_type        : <0x70f2>
    <fac>   DW_AT_artificial  : 1
 <4><fac>: Abbrev Number: 1 (DW_TAG_formal_parameter)
    <fad>   DW_AT_type        : <0xc65>
 <4><fb1>: Abbrev Number: 0
 <3><fb2>: Abbrev Number: 12 (DW_TAG_subprogram)
    <fb3>   DW_AT_external    : 1
    <fb3>   DW_AT_name        : (indirect string, offset: 0x67ff): swap
    <fb7>   DW_AT_decl_file   : 37
    <fb8>   DW_AT_decl_line   : 281
    <fba>   DW_AT_decl_column : 7
    <fbb>   DW_AT_linkage_name: (indirect string, offset: 0x9532): _ZNSt17basic_string_viewIcSt11char_traitsIcEE4swapERS2_
    <fbf>   DW_AT_accessibility: 1	(public)
    <fc0>   DW_AT_declaration : 1
    <fc0>   DW_AT_object_pointer: <0xfc8>
    <fc4>   DW_AT_sibling     : <0xfd3>
 <4><fc8>: Abbrev Number: 2 (DW_TAG_formal_parameter)
    <fc9>   DW_AT_type        : <0x70f2>
    <fcd>   DW_AT_artificial  : 1
 <4><fcd>: Abbrev Number: 1 (DW_TAG_formal_parameter)
    <fce>   DW_AT_type        : <0x70fc>
 <4><fd2>: Abbrev Number: 0
 <3><fd3>: Abbrev Number: 3 (DW_TAG_subprogram)
    <fd4>   DW_AT_external    : 1
    <fd4>   DW_AT_name        : (indirect string, offset: 0x99d3): copy
    <fd8>   DW_AT_decl_file   : 37
    <fd9>   DW_AT_decl_line   : 292
    <fdb>   DW_AT_decl_column : 7
